
test.bin:     file format binary


Disassembly of section .data:

0000000000000000 <.data>:
       0:	55                   	push   %rbp
       1:	48 89 e5             	mov    %rsp,%rbp
       4:	48 81 ec 48 00 00 00 	sub    $0x48,%rsp
       b:	48 89 7d f8          	mov    %rdi,-0x8(%rbp)
       f:	48 b8 00 5d 69 55 55 	movabs $0x555555695d00,%rax
      16:	55 00 00 
      19:	48 8b 00             	mov    (%rax),%rax
      1c:	48 89 45 f0          	mov    %rax,-0x10(%rbp)
      20:	48 31 c0             	xor    %rax,%rax
      23:	48 89 45 b8          	mov    %rax,-0x48(%rbp)
      27:	48 b8 80 5c 69 55 55 	movabs $0x555555695c80,%rax
      2e:	55 00 00 
      31:	48 8b 48 00          	mov    0x0(%rax),%rcx
      35:	48 89 4d b8          	mov    %rcx,-0x48(%rbp)
      39:	48 8b 7d b8          	mov    -0x48(%rbp),%rdi
      3d:	48 81 ff 00 00 00 00 	cmp    $0x0,%rdi
      44:	0f 84 08 00 00 00    	je     0x52
      4a:	48 ff 47 20          	incq   0x20(%rdi)
      4e:	48 ff 47 28          	incq   0x28(%rdi)
      52:	48 31 f6             	xor    %rsi,%rsi
      55:	40 8a 75 f0          	mov    -0x10(%rbp),%sil
      59:	48 89 f9             	mov    %rdi,%rcx
      5c:	48 ff 49 20          	decq   0x20(%rcx)
      60:	48 ff 49 28          	decq   0x28(%rcx)
      64:	48 8b 51 18          	mov    0x18(%rcx),%rdx
      68:	48 81 c2 10 00 00 00 	add    $0x10,%rdx
      6f:	40 88 32             	mov    %sil,(%rdx)
      72:	48 8b 7d b8          	mov    -0x48(%rbp),%rdi
      76:	48 81 ff 00 00 00 00 	cmp    $0x0,%rdi
      7d:	0f 84 08 00 00 00    	je     0x8b
      83:	48 ff 47 20          	incq   0x20(%rdi)
      87:	48 ff 47 28          	incq   0x28(%rdi)
      8b:	48 31 f6             	xor    %rsi,%rsi
      8e:	40 8a 75 f1          	mov    -0xf(%rbp),%sil
      92:	48 89 f9             	mov    %rdi,%rcx
      95:	48 ff 49 20          	decq   0x20(%rcx)
      99:	48 ff 49 28          	decq   0x28(%rcx)
      9d:	48 8b 51 18          	mov    0x18(%rcx),%rdx
      a1:	48 81 c2 11 00 00 00 	add    $0x11,%rdx
      a8:	40 88 32             	mov    %sil,(%rdx)
      ab:	48 8b 7d b8          	mov    -0x48(%rbp),%rdi
      af:	48 81 ff 00 00 00 00 	cmp    $0x0,%rdi
      b6:	0f 84 08 00 00 00    	je     0xc4
      bc:	48 ff 47 20          	incq   0x20(%rdi)
      c0:	48 ff 47 28          	incq   0x28(%rdi)
      c4:	57                   	push   %rdi
      c5:	48 8b 7d f8          	mov    -0x8(%rbp),%rdi
      c9:	48 be 00 00 00 00 00 	movabs $0x0,%rsi
      d0:	00 00 00 
      d3:	48 b8 71 bf 58 55 55 	movabs $0x55555558bf71,%rax
      da:	55 00 00 
      dd:	ff d0                	call   *%rax
      df:	5f                   	pop    %rdi
      e0:	48 c1 e0 30          	shl    $0x30,%rax
      e4:	48 b9 ac 00 00 00 00 	movabs $0xac,%rcx
      eb:	00 00 00 
      ee:	48 09 c8             	or     %rcx,%rax
      f1:	48 89 c6             	mov    %rax,%rsi
      f4:	48 89 f9             	mov    %rdi,%rcx
      f7:	48 ff 49 20          	decq   0x20(%rcx)
      fb:	48 ff 49 28          	decq   0x28(%rcx)
      ff:	48 8b 51 18          	mov    0x18(%rcx),%rdx
     103:	48 81 c2 18 00 00 00 	add    $0x18,%rdx
     10a:	48 89 32             	mov    %rsi,(%rdx)
     10d:	48 31 ff             	xor    %rdi,%rdi
     110:	48 8b 4d b8          	mov    -0x48(%rbp),%rcx
     114:	48 31 d2             	xor    %rdx,%rdx
     117:	48 39 d1             	cmp    %rdx,%rcx
     11a:	0f 84 23 00 00 00    	je     0x143
     120:	48 ff 49 20          	decq   0x20(%rcx)
     124:	48 ff 49 28          	decq   0x28(%rcx)
     128:	48 39 51 20          	cmp    %rdx,0x20(%rcx)
     12c:	0f 85 11 00 00 00    	jne    0x143
     132:	57                   	push   %rdi
     133:	48 b8 7f 95 58 55 55 	movabs $0x55555558957f,%rax
     13a:	55 00 00 
     13d:	48 89 cf             	mov    %rcx,%rdi
     140:	ff d0                	call   *%rax
     142:	5f                   	pop    %rdi
     143:	48 89 7d b8          	mov    %rdi,-0x48(%rbp)
     147:	48 31 ff             	xor    %rdi,%rdi
     14a:	48 31 c0             	xor    %rax,%rax
     14d:	c9                   	leave  
     14e:	c3                   	ret    
     14f:	55                   	push   %rbp
     150:	48 89 e5             	mov    %rsp,%rbp
     153:	48 81 ec 58 00 00 00 	sub    $0x58,%rsp
     15a:	48 89 7d f8          	mov    %rdi,-0x8(%rbp)
     15e:	48 b8 00 5d 69 55 55 	movabs $0x555555695d00,%rax
     165:	55 00 00 
     168:	48 8b 00             	mov    (%rax),%rax
     16b:	48 89 45 f0          	mov    %rax,-0x10(%rbp)
     16f:	48 31 c0             	xor    %rax,%rax
     172:	48 89 45 b8          	mov    %rax,-0x48(%rbp)
     176:	48 89 45 b0          	mov    %rax,-0x50(%rbp)
     17a:	48 89 45 a8          	mov    %rax,-0x58(%rbp)
     17e:	48 b8 80 5c 69 55 55 	movabs $0x555555695c80,%rax
     185:	55 00 00 
     188:	48 8b 48 00          	mov    0x0(%rax),%rcx
     18c:	48 89 4d b8          	mov    %rcx,-0x48(%rbp)
     190:	48 8b 48 08          	mov    0x8(%rax),%rcx
     194:	48 89 4d b0          	mov    %rcx,-0x50(%rbp)
     198:	48 8b 48 10          	mov    0x10(%rax),%rcx
     19c:	48 89 4d a8          	mov    %rcx,-0x58(%rbp)
     1a0:	48 8b 45 b8          	mov    -0x48(%rbp),%rax
     1a4:	48 8b 40 18          	mov    0x18(%rax),%rax
     1a8:	48 8b 48 10          	mov    0x10(%rax),%rcx
     1ac:	48 89 4d f0          	mov    %rcx,-0x10(%rbp)
     1b0:	48 31 ff             	xor    %rdi,%rdi
     1b3:	48 8b 4d b8          	mov    -0x48(%rbp),%rcx
     1b7:	48 31 d2             	xor    %rdx,%rdx
     1ba:	48 39 d1             	cmp    %rdx,%rcx
     1bd:	0f 84 23 00 00 00    	je     0x1e6
     1c3:	48 ff 49 20          	decq   0x20(%rcx)
     1c7:	48 ff 49 28          	decq   0x28(%rcx)
     1cb:	48 39 51 20          	cmp    %rdx,0x20(%rcx)
     1cf:	0f 85 11 00 00 00    	jne    0x1e6
     1d5:	57                   	push   %rdi
     1d6:	48 b8 7f 95 58 55 55 	movabs $0x55555558957f,%rax
     1dd:	55 00 00 
     1e0:	48 89 cf             	mov    %rcx,%rdi
     1e3:	ff d0                	call   *%rax
     1e5:	5f                   	pop    %rdi
     1e6:	48 89 7d b8          	mov    %rdi,-0x48(%rbp)
     1ea:	48 31 ff             	xor    %rdi,%rdi
     1ed:	40 8a 45 f0          	rex mov -0x10(%rbp),%al
     1f1:	40 80 f8 0a          	rex cmp $0xa,%al
     1f5:	0f 85 19 00 00 00    	jne    0x214
     1fb:	48 8b 4d b0          	mov    -0x50(%rbp),%rcx
     1ff:	48 81 f9 00 00 00 00 	cmp    $0x0,%rcx
     206:	0f 84 08 00 00 00    	je     0x214
     20c:	48 ff 49 20          	decq   0x20(%rcx)
     210:	48 ff 49 28          	decq   0x28(%rcx)
     214:	48 89 7d b0          	mov    %rdi,-0x50(%rbp)
     218:	40 80 f8 0a          	rex cmp $0xa,%al
     21c:	0f 85 15 00 00 00    	jne    0x237
     222:	48 81 ff 00 00 00 00 	cmp    $0x0,%rdi
     229:	0f 84 08 00 00 00    	je     0x237
     22f:	48 ff 47 20          	incq   0x20(%rdi)
     233:	48 ff 47 28          	incq   0x28(%rdi)
     237:	48 31 ff             	xor    %rdi,%rdi
     23a:	40 8a 45 f1          	rex mov -0xf(%rbp),%al
     23e:	40 80 f8 0a          	rex cmp $0xa,%al
     242:	0f 85 19 00 00 00    	jne    0x261
     248:	48 8b 4d a8          	mov    -0x58(%rbp),%rcx
     24c:	48 81 f9 00 00 00 00 	cmp    $0x0,%rcx
     253:	0f 84 08 00 00 00    	je     0x261
     259:	48 ff 49 20          	decq   0x20(%rcx)
     25d:	48 ff 49 28          	decq   0x28(%rcx)
     261:	48 89 7d a8          	mov    %rdi,-0x58(%rbp)
     265:	40 80 f8 0a          	rex cmp $0xa,%al
     269:	0f 85 15 00 00 00    	jne    0x284
     26f:	48 81 ff 00 00 00 00 	cmp    $0x0,%rdi
     276:	0f 84 08 00 00 00    	je     0x284
     27c:	48 ff 47 20          	incq   0x20(%rdi)
     280:	48 ff 47 28          	incq   0x28(%rdi)
     284:	48 31 ff             	xor    %rdi,%rdi
     287:	48 89 f8             	mov    %rdi,%rax
     28a:	c9                   	leave  
     28b:	c3                   	ret    
     28c:	55                   	push   %rbp
     28d:	48 89 e5             	mov    %rsp,%rbp
     290:	48 81 ec 48 00 00 00 	sub    $0x48,%rsp
     297:	48 89 7d f8          	mov    %rdi,-0x8(%rbp)
     29b:	48 b8 00 5d 69 55 55 	movabs $0x555555695d00,%rax
     2a2:	55 00 00 
     2a5:	48 8b 00             	mov    (%rax),%rax
     2a8:	48 89 45 f0          	mov    %rax,-0x10(%rbp)
     2ac:	48 31 c0             	xor    %rax,%rax
     2af:	48 89 45 b8          	mov    %rax,-0x48(%rbp)
     2b3:	48 b8 80 5c 69 55 55 	movabs $0x555555695c80,%rax
     2ba:	55 00 00 
     2bd:	48 8b 48 00          	mov    0x0(%rax),%rcx
     2c1:	48 89 4d b8          	mov    %rcx,-0x48(%rbp)
     2c5:	48 bf 08 00 00 00 00 	movabs $0x8,%rdi
     2cc:	00 00 00 
     2cf:	48 be 08 00 00 00 00 	movabs $0x8,%rsi
     2d6:	00 00 00 
     2d9:	48 b8 00 5d 69 55 55 	movabs $0x555555695d00,%rax
     2e0:	55 00 00 
     2e3:	40 88 78 00          	mov    %dil,0x0(%rax)
     2e7:	40 88 70 01          	mov    %sil,0x1(%rax)
     2eb:	48 8b 7d b8          	mov    -0x48(%rbp),%rdi
     2ef:	48 81 ff 00 00 00 00 	cmp    $0x0,%rdi
     2f6:	0f 84 08 00 00 00    	je     0x304
     2fc:	48 ff 47 20          	incq   0x20(%rdi)
     300:	48 ff 47 28          	incq   0x28(%rdi)
     304:	48 b8 80 5c 69 55 55 	movabs $0x555555695c80,%rax
     30b:	55 00 00 
     30e:	48 89 78 00          	mov    %rdi,0x0(%rax)
     312:	48 8b 4d f8          	mov    -0x8(%rbp),%rcx
     316:	48 8b 51 10          	mov    0x10(%rcx),%rdx
     31a:	48 8b 42 00          	mov    0x0(%rdx),%rax
     31e:	48 89 c7             	mov    %rax,%rdi
     321:	48 8b 40 68          	mov    0x68(%rax),%rax
     325:	48 b9 00 00 00 00 00 	movabs $0x0,%rcx
     32c:	00 00 00 
     32f:	48 8b 04 c8          	mov    (%rax,%rcx,8),%rax
     333:	ff d0                	call   *%rax
     335:	48 89 c7             	mov    %rax,%rdi
     338:	48 31 ff             	xor    %rdi,%rdi
     33b:	48 8b 7d b8          	mov    -0x48(%rbp),%rdi
     33f:	48 81 ff 00 00 00 00 	cmp    $0x0,%rdi
     346:	0f 84 08 00 00 00    	je     0x354
     34c:	48 ff 47 20          	incq   0x20(%rdi)
     350:	48 ff 47 28          	incq   0x28(%rdi)
     354:	57                   	push   %rdi
     355:	48 8b 7d f8          	mov    -0x8(%rbp),%rdi
     359:	48 be 00 00 00 00 00 	movabs $0x0,%rsi
     360:	00 00 00 
     363:	48 b8 71 bf 58 55 55 	movabs $0x55555558bf71,%rax
     36a:	55 00 00 
     36d:	ff d0                	call   *%rax
     36f:	5f                   	pop    %rdi
     370:	48 c1 e0 30          	shl    $0x30,%rax
     374:	48 b9 e0 01 00 00 00 	movabs $0x1e0,%rcx
     37b:	00 00 00 
     37e:	48 09 c8             	or     %rcx,%rax
     381:	48 89 c6             	mov    %rax,%rsi
     384:	48 89 f9             	mov    %rdi,%rcx
     387:	48 ff 49 20          	decq   0x20(%rcx)
     38b:	48 ff 49 28          	decq   0x28(%rcx)
     38f:	48 8b 51 18          	mov    0x18(%rcx),%rdx
     393:	48 81 c2 18 00 00 00 	add    $0x18,%rdx
     39a:	48 89 32             	mov    %rsi,(%rdx)
     39d:	48 31 ff             	xor    %rdi,%rdi
     3a0:	48 8b 4d b8          	mov    -0x48(%rbp),%rcx
     3a4:	48 31 d2             	xor    %rdx,%rdx
     3a7:	48 39 d1             	cmp    %rdx,%rcx
     3aa:	0f 84 23 00 00 00    	je     0x3d3
     3b0:	48 ff 49 20          	decq   0x20(%rcx)
     3b4:	48 ff 49 28          	decq   0x28(%rcx)
     3b8:	48 39 51 20          	cmp    %rdx,0x20(%rcx)
     3bc:	0f 85 11 00 00 00    	jne    0x3d3
     3c2:	57                   	push   %rdi
     3c3:	48 b8 7f 95 58 55 55 	movabs $0x55555558957f,%rax
     3ca:	55 00 00 
     3cd:	48 89 cf             	mov    %rcx,%rdi
     3d0:	ff d0                	call   *%rax
     3d2:	5f                   	pop    %rdi
     3d3:	48 89 7d b8          	mov    %rdi,-0x48(%rbp)
     3d7:	48 31 ff             	xor    %rdi,%rdi
     3da:	48 31 c0             	xor    %rax,%rax
     3dd:	c9                   	leave  
     3de:	c3                   	ret    
     3df:	55                   	push   %rbp
     3e0:	48 89 e5             	mov    %rsp,%rbp
     3e3:	48 81 ec 58 00 00 00 	sub    $0x58,%rsp
     3ea:	48 89 7d f8          	mov    %rdi,-0x8(%rbp)
     3ee:	48 b8 00 5d 69 55 55 	movabs $0x555555695d00,%rax
     3f5:	55 00 00 
     3f8:	48 8b 00             	mov    (%rax),%rax
     3fb:	48 89 45 f0          	mov    %rax,-0x10(%rbp)
     3ff:	48 31 c0             	xor    %rax,%rax
     402:	48 89 45 b8          	mov    %rax,-0x48(%rbp)
     406:	48 89 45 b0          	mov    %rax,-0x50(%rbp)
     40a:	48 89 45 a8          	mov    %rax,-0x58(%rbp)
     40e:	48 b8 80 5c 69 55 55 	movabs $0x555555695c80,%rax
     415:	55 00 00 
     418:	48 8b 48 00          	mov    0x0(%rax),%rcx
     41c:	48 89 4d b8          	mov    %rcx,-0x48(%rbp)
     420:	48 8b 48 08          	mov    0x8(%rax),%rcx
     424:	48 89 4d b0          	mov    %rcx,-0x50(%rbp)
     428:	48 8b 48 10          	mov    0x10(%rax),%rcx
     42c:	48 89 4d a8          	mov    %rcx,-0x58(%rbp)
     430:	48 8b 7d b0          	mov    -0x50(%rbp),%rdi
     434:	48 8b 75 a8          	mov    -0x58(%rbp),%rsi
     438:	66 0f 6e c7          	movd   %edi,%xmm0
     43c:	66 0f 6e ce          	movd   %esi,%xmm1
     440:	0f 2e c1             	ucomiss %xmm1,%xmm0
     443:	0f 87 08 00 00 00    	ja     0x451
     449:	48 31 ff             	xor    %rdi,%rdi
     44c:	e9 0a 00 00 00       	jmp    0x45b
     451:	48 bf 01 00 00 00 00 	movabs $0x1,%rdi
     458:	00 00 00 
     45b:	48 81 ff 00 00 00 00 	cmp    $0x0,%rdi
     462:	0f 84 5c 00 00 00    	je     0x4c4
     468:	48 bf 01 00 00 00 00 	movabs $0x1,%rdi
     46f:	00 00 00 
     472:	48 31 f6             	xor    %rsi,%rsi
     475:	48 8b 4d b8          	mov    -0x48(%rbp),%rcx
     479:	48 31 d2             	xor    %rdx,%rdx
     47c:	48 39 d1             	cmp    %rdx,%rcx
     47f:	0f 84 25 00 00 00    	je     0x4aa
     485:	48 ff 49 20          	decq   0x20(%rcx)
     489:	48 ff 49 28          	decq   0x28(%rcx)
     48d:	48 39 51 20          	cmp    %rdx,0x20(%rcx)
     491:	0f 85 13 00 00 00    	jne    0x4aa
     497:	57                   	push   %rdi
     498:	56                   	push   %rsi
     499:	48 b8 7f 95 58 55 55 	movabs $0x55555558957f,%rax
     4a0:	55 00 00 
     4a3:	48 89 cf             	mov    %rcx,%rdi
     4a6:	ff d0                	call   *%rax
     4a8:	5e                   	pop    %rsi
     4a9:	5f                   	pop    %rdi
     4aa:	48 89 75 b8          	mov    %rsi,-0x48(%rbp)
     4ae:	48 31 f6             	xor    %rsi,%rsi
     4b1:	89 75 b0             	mov    %esi,-0x50(%rbp)
     4b4:	48 31 f6             	xor    %rsi,%rsi
     4b7:	89 75 a8             	mov    %esi,-0x58(%rbp)
     4ba:	48 89 f8             	mov    %rdi,%rax
     4bd:	c9                   	leave  
     4be:	c3                   	ret    
     4bf:	e9 e9 00 00 00       	jmp    0x5ad
     4c4:	48 8b 7d b0          	mov    -0x50(%rbp),%rdi
     4c8:	48 8b 75 a8          	mov    -0x58(%rbp),%rsi
     4cc:	66 0f 6e c7          	movd   %edi,%xmm0
     4d0:	66 0f 6e ce          	movd   %esi,%xmm1
     4d4:	0f 2e c1             	ucomiss %xmm1,%xmm0
     4d7:	0f 84 08 00 00 00    	je     0x4e5
     4dd:	48 31 ff             	xor    %rdi,%rdi
     4e0:	e9 0a 00 00 00       	jmp    0x4ef
     4e5:	48 bf 01 00 00 00 00 	movabs $0x1,%rdi
     4ec:	00 00 00 
     4ef:	48 81 ff 00 00 00 00 	cmp    $0x0,%rdi
     4f6:	0f 84 55 00 00 00    	je     0x551
     4fc:	48 31 ff             	xor    %rdi,%rdi
     4ff:	48 31 f6             	xor    %rsi,%rsi
     502:	48 8b 4d b8          	mov    -0x48(%rbp),%rcx
     506:	48 31 d2             	xor    %rdx,%rdx
     509:	48 39 d1             	cmp    %rdx,%rcx
     50c:	0f 84 25 00 00 00    	je     0x537
     512:	48 ff 49 20          	decq   0x20(%rcx)
     516:	48 ff 49 28          	decq   0x28(%rcx)
     51a:	48 39 51 20          	cmp    %rdx,0x20(%rcx)
     51e:	0f 85 13 00 00 00    	jne    0x537
     524:	57                   	push   %rdi
     525:	56                   	push   %rsi
     526:	48 b8 7f 95 58 55 55 	movabs $0x55555558957f,%rax
     52d:	55 00 00 
     530:	48 89 cf             	mov    %rcx,%rdi
     533:	ff d0                	call   *%rax
     535:	5e                   	pop    %rsi
     536:	5f                   	pop    %rdi
     537:	48 89 75 b8          	mov    %rsi,-0x48(%rbp)
     53b:	48 31 f6             	xor    %rsi,%rsi
     53e:	89 75 b0             	mov    %esi,-0x50(%rbp)
     541:	48 31 f6             	xor    %rsi,%rsi
     544:	89 75 a8             	mov    %esi,-0x58(%rbp)
     547:	48 89 f8             	mov    %rdi,%rax
     54a:	c9                   	leave  
     54b:	c3                   	ret    
     54c:	e9 5c 00 00 00       	jmp    0x5ad
     551:	48 31 ff             	xor    %rdi,%rdi
     554:	48 be 01 00 00 00 00 	movabs $0x1,%rsi
     55b:	00 00 00 
     55e:	29 f7                	sub    %esi,%edi
     560:	48 31 f6             	xor    %rsi,%rsi
     563:	48 8b 4d b8          	mov    -0x48(%rbp),%rcx
     567:	48 31 d2             	xor    %rdx,%rdx
     56a:	48 39 d1             	cmp    %rdx,%rcx
     56d:	0f 84 25 00 00 00    	je     0x598
     573:	48 ff 49 20          	decq   0x20(%rcx)
     577:	48 ff 49 28          	decq   0x28(%rcx)
     57b:	48 39 51 20          	cmp    %rdx,0x20(%rcx)
     57f:	0f 85 13 00 00 00    	jne    0x598
     585:	57                   	push   %rdi
     586:	56                   	push   %rsi
     587:	48 b8 7f 95 58 55 55 	movabs $0x55555558957f,%rax
     58e:	55 00 00 
     591:	48 89 cf             	mov    %rcx,%rdi
     594:	ff d0                	call   *%rax
     596:	5e                   	pop    %rsi
     597:	5f                   	pop    %rdi
     598:	48 89 75 b8          	mov    %rsi,-0x48(%rbp)
     59c:	48 31 f6             	xor    %rsi,%rsi
     59f:	89 75 b0             	mov    %esi,-0x50(%rbp)
     5a2:	48 31 f6             	xor    %rsi,%rsi
     5a5:	89 75 a8             	mov    %esi,-0x58(%rbp)
     5a8:	48 89 f8             	mov    %rdi,%rax
     5ab:	c9                   	leave  
     5ac:	c3                   	ret    
     5ad:	48 31 ff             	xor    %rdi,%rdi
     5b0:	48 8b 4d b8          	mov    -0x48(%rbp),%rcx
     5b4:	48 31 d2             	xor    %rdx,%rdx
     5b7:	48 39 d1             	cmp    %rdx,%rcx
     5ba:	0f 84 23 00 00 00    	je     0x5e3
     5c0:	48 ff 49 20          	decq   0x20(%rcx)
     5c4:	48 ff 49 28          	decq   0x28(%rcx)
     5c8:	48 39 51 20          	cmp    %rdx,0x20(%rcx)
     5cc:	0f 85 11 00 00 00    	jne    0x5e3
     5d2:	57                   	push   %rdi
     5d3:	48 b8 7f 95 58 55 55 	movabs $0x55555558957f,%rax
     5da:	55 00 00 
     5dd:	48 89 cf             	mov    %rcx,%rdi
     5e0:	ff d0                	call   *%rax
     5e2:	5f                   	pop    %rdi
     5e3:	48 89 7d b8          	mov    %rdi,-0x48(%rbp)
     5e7:	48 31 ff             	xor    %rdi,%rdi
     5ea:	89 7d b0             	mov    %edi,-0x50(%rbp)
     5ed:	48 31 ff             	xor    %rdi,%rdi
     5f0:	89 7d a8             	mov    %edi,-0x58(%rbp)
     5f3:	48 31 ff             	xor    %rdi,%rdi
     5f6:	48 89 f8             	mov    %rdi,%rax
     5f9:	c9                   	leave  
     5fa:	c3                   	ret    
     5fb:	55                   	push   %rbp
     5fc:	48 89 e5             	mov    %rsp,%rbp
     5ff:	48 81 ec 48 00 00 00 	sub    $0x48,%rsp
     606:	48 89 7d f8          	mov    %rdi,-0x8(%rbp)
     60a:	48 b8 00 5d 69 55 55 	movabs $0x555555695d00,%rax
     611:	55 00 00 
     614:	48 8b 00             	mov    (%rax),%rax
     617:	48 89 45 f0          	mov    %rax,-0x10(%rbp)
     61b:	48 31 c0             	xor    %rax,%rax
     61e:	48 89 45 b8          	mov    %rax,-0x48(%rbp)
     622:	48 b8 80 5c 69 55 55 	movabs $0x555555695c80,%rax
     629:	55 00 00 
     62c:	48 8b 48 00          	mov    0x0(%rax),%rcx
     630:	48 89 4d b8          	mov    %rcx,-0x48(%rbp)
     634:	48 bf 04 00 00 00 00 	movabs $0x4,%rdi
     63b:	00 00 00 
     63e:	48 be 04 00 00 00 00 	movabs $0x4,%rsi
     645:	00 00 00 
     648:	48 b8 00 5d 69 55 55 	movabs $0x555555695d00,%rax
     64f:	55 00 00 
     652:	40 88 78 00          	mov    %dil,0x0(%rax)
     656:	40 88 70 01          	mov    %sil,0x1(%rax)
     65a:	48 8b 7d b8          	mov    -0x48(%rbp),%rdi
     65e:	48 81 ff 00 00 00 00 	cmp    $0x0,%rdi
     665:	0f 84 08 00 00 00    	je     0x673
     66b:	48 ff 47 20          	incq   0x20(%rdi)
     66f:	48 ff 47 28          	incq   0x28(%rdi)
     673:	48 b8 80 5c 69 55 55 	movabs $0x555555695c80,%rax
     67a:	55 00 00 
     67d:	48 89 78 00          	mov    %rdi,0x0(%rax)
     681:	48 8b 4d f8          	mov    -0x8(%rbp),%rcx
     685:	48 8b 51 10          	mov    0x10(%rcx),%rdx
     689:	48 8b 42 00          	mov    0x0(%rdx),%rax
     68d:	48 89 c7             	mov    %rax,%rdi
     690:	48 8b 40 68          	mov    0x68(%rax),%rax
     694:	48 b9 00 00 00 00 00 	movabs $0x0,%rcx
     69b:	00 00 00 
     69e:	48 8b 04 c8          	mov    (%rax,%rcx,8),%rax
     6a2:	ff d0                	call   *%rax
     6a4:	48 89 c7             	mov    %rax,%rdi
     6a7:	48 31 ff             	xor    %rdi,%rdi
     6aa:	48 8b 7d b8          	mov    -0x48(%rbp),%rdi
     6ae:	48 81 ff 00 00 00 00 	cmp    $0x0,%rdi
     6b5:	0f 84 08 00 00 00    	je     0x6c3
     6bb:	48 ff 47 20          	incq   0x20(%rdi)
     6bf:	48 ff 47 28          	incq   0x28(%rdi)
     6c3:	57                   	push   %rdi
     6c4:	48 8b 7d f8          	mov    -0x8(%rbp),%rdi
     6c8:	48 be 00 00 00 00 00 	movabs $0x0,%rsi
     6cf:	00 00 00 
     6d2:	48 b8 71 bf 58 55 55 	movabs $0x55555558bf71,%rax
     6d9:	55 00 00 
     6dc:	ff d0                	call   *%rax
     6de:	5f                   	pop    %rdi
     6df:	48 c1 e0 30          	shl    $0x30,%rax
     6e3:	48 b9 80 04 00 00 00 	movabs $0x480,%rcx
     6ea:	00 00 00 
     6ed:	48 09 c8             	or     %rcx,%rax
     6f0:	48 89 c6             	mov    %rax,%rsi
     6f3:	48 89 f9             	mov    %rdi,%rcx
     6f6:	48 ff 49 20          	decq   0x20(%rcx)
     6fa:	48 ff 49 28          	decq   0x28(%rcx)
     6fe:	48 8b 51 18          	mov    0x18(%rcx),%rdx
     702:	48 81 c2 18 00 00 00 	add    $0x18,%rdx
     709:	48 89 32             	mov    %rsi,(%rdx)
     70c:	48 31 ff             	xor    %rdi,%rdi
     70f:	48 8b 4d b8          	mov    -0x48(%rbp),%rcx
     713:	48 31 d2             	xor    %rdx,%rdx
     716:	48 39 d1             	cmp    %rdx,%rcx
     719:	0f 84 23 00 00 00    	je     0x742
     71f:	48 ff 49 20          	decq   0x20(%rcx)
     723:	48 ff 49 28          	decq   0x28(%rcx)
     727:	48 39 51 20          	cmp    %rdx,0x20(%rcx)
     72b:	0f 85 11 00 00 00    	jne    0x742
     731:	57                   	push   %rdi
     732:	48 b8 7f 95 58 55 55 	movabs $0x55555558957f,%rax
     739:	55 00 00 
     73c:	48 89 cf             	mov    %rcx,%rdi
     73f:	ff d0                	call   *%rax
     741:	5f                   	pop    %rdi
     742:	48 89 7d b8          	mov    %rdi,-0x48(%rbp)
     746:	48 31 ff             	xor    %rdi,%rdi
     749:	48 31 c0             	xor    %rax,%rax
     74c:	c9                   	leave  
     74d:	c3                   	ret    
     74e:	55                   	push   %rbp
     74f:	48 89 e5             	mov    %rsp,%rbp
     752:	48 81 ec 58 00 00 00 	sub    $0x58,%rsp
     759:	48 89 7d f8          	mov    %rdi,-0x8(%rbp)
     75d:	48 b8 00 5d 69 55 55 	movabs $0x555555695d00,%rax
     764:	55 00 00 
     767:	48 8b 00             	mov    (%rax),%rax
     76a:	48 89 45 f0          	mov    %rax,-0x10(%rbp)
     76e:	48 31 c0             	xor    %rax,%rax
     771:	48 89 45 b8          	mov    %rax,-0x48(%rbp)
     775:	48 89 45 b0          	mov    %rax,-0x50(%rbp)
     779:	48 89 45 a8          	mov    %rax,-0x58(%rbp)
     77d:	48 b8 80 5c 69 55 55 	movabs $0x555555695c80,%rax
     784:	55 00 00 
     787:	48 8b 48 00          	mov    0x0(%rax),%rcx
     78b:	48 89 4d b8          	mov    %rcx,-0x48(%rbp)
     78f:	48 8b 48 08          	mov    0x8(%rax),%rcx
     793:	48 89 4d b0          	mov    %rcx,-0x50(%rbp)
     797:	48 8b 48 10          	mov    0x10(%rax),%rcx
     79b:	48 89 4d a8          	mov    %rcx,-0x58(%rbp)
     79f:	48 8b 7d b0          	mov    -0x50(%rbp),%rdi
     7a3:	48 8b 75 a8          	mov    -0x58(%rbp),%rsi
     7a7:	39 f7                	cmp    %esi,%edi
     7a9:	0f 8f 08 00 00 00    	jg     0x7b7
     7af:	48 31 ff             	xor    %rdi,%rdi
     7b2:	e9 0a 00 00 00       	jmp    0x7c1
     7b7:	48 bf 01 00 00 00 00 	movabs $0x1,%rdi
     7be:	00 00 00 
     7c1:	48 81 ff 00 00 00 00 	cmp    $0x0,%rdi
     7c8:	0f 84 5c 00 00 00    	je     0x82a
     7ce:	48 bf 01 00 00 00 00 	movabs $0x1,%rdi
     7d5:	00 00 00 
     7d8:	48 31 f6             	xor    %rsi,%rsi
     7db:	48 8b 4d b8          	mov    -0x48(%rbp),%rcx
     7df:	48 31 d2             	xor    %rdx,%rdx
     7e2:	48 39 d1             	cmp    %rdx,%rcx
     7e5:	0f 84 25 00 00 00    	je     0x810
     7eb:	48 ff 49 20          	decq   0x20(%rcx)
     7ef:	48 ff 49 28          	decq   0x28(%rcx)
     7f3:	48 39 51 20          	cmp    %rdx,0x20(%rcx)
     7f7:	0f 85 13 00 00 00    	jne    0x810
     7fd:	57                   	push   %rdi
     7fe:	56                   	push   %rsi
     7ff:	48 b8 7f 95 58 55 55 	movabs $0x55555558957f,%rax
     806:	55 00 00 
     809:	48 89 cf             	mov    %rcx,%rdi
     80c:	ff d0                	call   *%rax
     80e:	5e                   	pop    %rsi
     80f:	5f                   	pop    %rdi
     810:	48 89 75 b8          	mov    %rsi,-0x48(%rbp)
     814:	48 31 f6             	xor    %rsi,%rsi
     817:	89 75 b0             	mov    %esi,-0x50(%rbp)
     81a:	48 31 f6             	xor    %rsi,%rsi
     81d:	89 75 a8             	mov    %esi,-0x58(%rbp)
     820:	48 89 f8             	mov    %rdi,%rax
     823:	c9                   	leave  
     824:	c3                   	ret    
     825:	e9 e0 00 00 00       	jmp    0x90a
     82a:	48 8b 7d b0          	mov    -0x50(%rbp),%rdi
     82e:	48 8b 75 a8          	mov    -0x58(%rbp),%rsi
     832:	39 f7                	cmp    %esi,%edi
     834:	0f 84 08 00 00 00    	je     0x842
     83a:	48 31 ff             	xor    %rdi,%rdi
     83d:	e9 0a 00 00 00       	jmp    0x84c
     842:	48 bf 01 00 00 00 00 	movabs $0x1,%rdi
     849:	00 00 00 
     84c:	48 81 ff 00 00 00 00 	cmp    $0x0,%rdi
     853:	0f 84 55 00 00 00    	je     0x8ae
     859:	48 31 ff             	xor    %rdi,%rdi
     85c:	48 31 f6             	xor    %rsi,%rsi
     85f:	48 8b 4d b8          	mov    -0x48(%rbp),%rcx
     863:	48 31 d2             	xor    %rdx,%rdx
     866:	48 39 d1             	cmp    %rdx,%rcx
     869:	0f 84 25 00 00 00    	je     0x894
     86f:	48 ff 49 20          	decq   0x20(%rcx)
     873:	48 ff 49 28          	decq   0x28(%rcx)
     877:	48 39 51 20          	cmp    %rdx,0x20(%rcx)
     87b:	0f 85 13 00 00 00    	jne    0x894
     881:	57                   	push   %rdi
     882:	56                   	push   %rsi
     883:	48 b8 7f 95 58 55 55 	movabs $0x55555558957f,%rax
     88a:	55 00 00 
     88d:	48 89 cf             	mov    %rcx,%rdi
     890:	ff d0                	call   *%rax
     892:	5e                   	pop    %rsi
     893:	5f                   	pop    %rdi
     894:	48 89 75 b8          	mov    %rsi,-0x48(%rbp)
     898:	48 31 f6             	xor    %rsi,%rsi
     89b:	89 75 b0             	mov    %esi,-0x50(%rbp)
     89e:	48 31 f6             	xor    %rsi,%rsi
     8a1:	89 75 a8             	mov    %esi,-0x58(%rbp)
     8a4:	48 89 f8             	mov    %rdi,%rax
     8a7:	c9                   	leave  
     8a8:	c3                   	ret    
     8a9:	e9 5c 00 00 00       	jmp    0x90a
     8ae:	48 31 ff             	xor    %rdi,%rdi
     8b1:	48 be 01 00 00 00 00 	movabs $0x1,%rsi
     8b8:	00 00 00 
     8bb:	29 f7                	sub    %esi,%edi
     8bd:	48 31 f6             	xor    %rsi,%rsi
     8c0:	48 8b 4d b8          	mov    -0x48(%rbp),%rcx
     8c4:	48 31 d2             	xor    %rdx,%rdx
     8c7:	48 39 d1             	cmp    %rdx,%rcx
     8ca:	0f 84 25 00 00 00    	je     0x8f5
     8d0:	48 ff 49 20          	decq   0x20(%rcx)
     8d4:	48 ff 49 28          	decq   0x28(%rcx)
     8d8:	48 39 51 20          	cmp    %rdx,0x20(%rcx)
     8dc:	0f 85 13 00 00 00    	jne    0x8f5
     8e2:	57                   	push   %rdi
     8e3:	56                   	push   %rsi
     8e4:	48 b8 7f 95 58 55 55 	movabs $0x55555558957f,%rax
     8eb:	55 00 00 
     8ee:	48 89 cf             	mov    %rcx,%rdi
     8f1:	ff d0                	call   *%rax
     8f3:	5e                   	pop    %rsi
     8f4:	5f                   	pop    %rdi
     8f5:	48 89 75 b8          	mov    %rsi,-0x48(%rbp)
     8f9:	48 31 f6             	xor    %rsi,%rsi
     8fc:	89 75 b0             	mov    %esi,-0x50(%rbp)
     8ff:	48 31 f6             	xor    %rsi,%rsi
     902:	89 75 a8             	mov    %esi,-0x58(%rbp)
     905:	48 89 f8             	mov    %rdi,%rax
     908:	c9                   	leave  
     909:	c3                   	ret    
     90a:	48 31 ff             	xor    %rdi,%rdi
     90d:	48 8b 4d b8          	mov    -0x48(%rbp),%rcx
     911:	48 31 d2             	xor    %rdx,%rdx
     914:	48 39 d1             	cmp    %rdx,%rcx
     917:	0f 84 23 00 00 00    	je     0x940
     91d:	48 ff 49 20          	decq   0x20(%rcx)
     921:	48 ff 49 28          	decq   0x28(%rcx)
     925:	48 39 51 20          	cmp    %rdx,0x20(%rcx)
     929:	0f 85 11 00 00 00    	jne    0x940
     92f:	57                   	push   %rdi
     930:	48 b8 7f 95 58 55 55 	movabs $0x55555558957f,%rax
     937:	55 00 00 
     93a:	48 89 cf             	mov    %rcx,%rdi
     93d:	ff d0                	call   *%rax
     93f:	5f                   	pop    %rdi
     940:	48 89 7d b8          	mov    %rdi,-0x48(%rbp)
     944:	48 31 ff             	xor    %rdi,%rdi
     947:	89 7d b0             	mov    %edi,-0x50(%rbp)
     94a:	48 31 ff             	xor    %rdi,%rdi
     94d:	89 7d a8             	mov    %edi,-0x58(%rbp)
     950:	48 31 ff             	xor    %rdi,%rdi
     953:	48 89 f8             	mov    %rdi,%rax
     956:	c9                   	leave  
     957:	c3                   	ret    
     958:	55                   	push   %rbp
     959:	48 89 e5             	mov    %rsp,%rbp
     95c:	48 81 ec 40 00 00 00 	sub    $0x40,%rsp
     963:	48 89 7d f8          	mov    %rdi,-0x8(%rbp)
     967:	48 b8 00 5d 69 55 55 	movabs $0x555555695d00,%rax
     96e:	55 00 00 
     971:	48 8b 00             	mov    (%rax),%rax
     974:	48 89 45 f0          	mov    %rax,-0x10(%rbp)
     978:	48 31 c0             	xor    %rax,%rax
     97b:	48 b8 80 5c 69 55 55 	movabs $0x555555695c80,%rax
     982:	55 00 00 
     985:	48 b8 45 c2 58 55 55 	movabs $0x55555558c245,%rax
     98c:	55 00 00 
     98f:	ff d0                	call   *%rax
     991:	48 89 c7             	mov    %rax,%rdi
     994:	48 89 f8             	mov    %rdi,%rax
     997:	c9                   	leave  
     998:	c3                   	ret    
     999:	48 31 ff             	xor    %rdi,%rdi
     99c:	48 89 f8             	mov    %rdi,%rax
     99f:	c9                   	leave  
     9a0:	c3                   	ret    
     9a1:	55                   	push   %rbp
     9a2:	48 89 e5             	mov    %rsp,%rbp
     9a5:	48 81 ec 40 00 00 00 	sub    $0x40,%rsp
     9ac:	48 89 7d f8          	mov    %rdi,-0x8(%rbp)
     9b0:	48 b8 00 5d 69 55 55 	movabs $0x555555695d00,%rax
     9b7:	55 00 00 
     9ba:	48 8b 00             	mov    (%rax),%rax
     9bd:	48 89 45 f0          	mov    %rax,-0x10(%rbp)
     9c1:	48 31 c0             	xor    %rax,%rax
     9c4:	48 b8 80 5c 69 55 55 	movabs $0x555555695c80,%rax
     9cb:	55 00 00 
     9ce:	48 bf 6d e6 ec de 05 	movabs $0x5deece66d,%rdi
     9d5:	00 00 00 
     9d8:	57                   	push   %rdi
     9d9:	48 8b 7d f8          	mov    -0x8(%rbp),%rdi
     9dd:	48 be 00 00 00 00 00 	movabs $0x0,%rsi
     9e4:	00 00 00 
     9e7:	48 b8 c1 be 58 55 55 	movabs $0x55555558bec1,%rax
     9ee:	55 00 00 
     9f1:	ff d0                	call   *%rax
     9f3:	5f                   	pop    %rdi
     9f4:	48 8b 30             	mov    (%rax),%rsi
     9f7:	48 89 f8             	mov    %rdi,%rax
     9fa:	48 f7 ee             	imul   %rsi
     9fd:	48 89 c7             	mov    %rax,%rdi
     a00:	48 be 01 00 00 00 00 	movabs $0x1,%rsi
     a07:	00 00 00 
     a0a:	49 b8 30 00 00 00 00 	movabs $0x30,%r8
     a11:	00 00 00 
     a14:	4c 89 c1             	mov    %r8,%rcx
     a17:	48 d3 e6             	shl    %cl,%rsi
     a1a:	49 b8 01 00 00 00 00 	movabs $0x1,%r8
     a21:	00 00 00 
     a24:	4c 29 c6             	sub    %r8,%rsi
     a27:	48 21 f7             	and    %rsi,%rdi
     a2a:	57                   	push   %rdi
     a2b:	48 8b 7d f8          	mov    -0x8(%rbp),%rdi
     a2f:	48 be 00 00 00 00 00 	movabs $0x0,%rsi
     a36:	00 00 00 
     a39:	48 b8 c1 be 58 55 55 	movabs $0x55555558bec1,%rax
     a40:	55 00 00 
     a43:	ff d0                	call   *%rax
     a45:	5f                   	pop    %rdi
     a46:	48 89 38             	mov    %rdi,(%rax)
     a49:	48 8b 7d f8          	mov    -0x8(%rbp),%rdi
     a4d:	48 be 00 00 00 00 00 	movabs $0x0,%rsi
     a54:	00 00 00 
     a57:	48 b8 c1 be 58 55 55 	movabs $0x55555558bec1,%rax
     a5e:	55 00 00 
     a61:	ff d0                	call   *%rax
     a63:	48 8b 38             	mov    (%rax),%rdi
     a66:	48 89 f8             	mov    %rdi,%rax
     a69:	c9                   	leave  
     a6a:	c3                   	ret    
     a6b:	48 31 ff             	xor    %rdi,%rdi
     a6e:	48 89 f8             	mov    %rdi,%rax
     a71:	c9                   	leave  
     a72:	c3                   	ret    
     a73:	55                   	push   %rbp
     a74:	48 89 e5             	mov    %rsp,%rbp
     a77:	48 81 ec 50 00 00 00 	sub    $0x50,%rsp
     a7e:	48 89 7d f8          	mov    %rdi,-0x8(%rbp)
     a82:	48 b8 00 5d 69 55 55 	movabs $0x555555695d00,%rax
     a89:	55 00 00 
     a8c:	48 8b 00             	mov    (%rax),%rax
     a8f:	48 89 45 f0          	mov    %rax,-0x10(%rbp)
     a93:	48 31 c0             	xor    %rax,%rax
     a96:	48 89 45 b8          	mov    %rax,-0x48(%rbp)
     a9a:	48 89 45 b0          	mov    %rax,-0x50(%rbp)
     a9e:	48 b8 80 5c 69 55 55 	movabs $0x555555695c80,%rax
     aa5:	55 00 00 
     aa8:	48 8b 48 00          	mov    0x0(%rax),%rcx
     aac:	48 89 4d b8          	mov    %rcx,-0x48(%rbp)
     ab0:	48 8b 48 08          	mov    0x8(%rax),%rcx
     ab4:	48 89 4d b0          	mov    %rcx,-0x50(%rbp)
     ab8:	48 bf 6d e6 ec de 05 	movabs $0x5deece66d,%rdi
     abf:	00 00 00 
     ac2:	57                   	push   %rdi
     ac3:	48 8b 7d f8          	mov    -0x8(%rbp),%rdi
     ac7:	48 be 00 00 00 00 00 	movabs $0x0,%rsi
     ace:	00 00 00 
     ad1:	48 b8 c1 be 58 55 55 	movabs $0x55555558bec1,%rax
     ad8:	55 00 00 
     adb:	ff d0                	call   *%rax
     add:	5f                   	pop    %rdi
     ade:	48 8b 30             	mov    (%rax),%rsi
     ae1:	48 89 f8             	mov    %rdi,%rax
     ae4:	48 f7 ee             	imul   %rsi
     ae7:	48 89 c7             	mov    %rax,%rdi
     aea:	48 be 01 00 00 00 00 	movabs $0x1,%rsi
     af1:	00 00 00 
     af4:	49 b8 30 00 00 00 00 	movabs $0x30,%r8
     afb:	00 00 00 
     afe:	4c 89 c1             	mov    %r8,%rcx
     b01:	48 d3 e6             	shl    %cl,%rsi
     b04:	49 b8 01 00 00 00 00 	movabs $0x1,%r8
     b0b:	00 00 00 
     b0e:	4c 29 c6             	sub    %r8,%rsi
     b11:	48 21 f7             	and    %rsi,%rdi
     b14:	57                   	push   %rdi
     b15:	48 8b 7d f8          	mov    -0x8(%rbp),%rdi
     b19:	48 be 00 00 00 00 00 	movabs $0x0,%rsi
     b20:	00 00 00 
     b23:	48 b8 c1 be 58 55 55 	movabs $0x55555558bec1,%rax
     b2a:	55 00 00 
     b2d:	ff d0                	call   *%rax
     b2f:	5f                   	pop    %rdi
     b30:	48 89 38             	mov    %rdi,(%rax)
     b33:	48 8b 7d f8          	mov    -0x8(%rbp),%rdi
     b37:	48 be 00 00 00 00 00 	movabs $0x0,%rsi
     b3e:	00 00 00 
     b41:	48 b8 c1 be 58 55 55 	movabs $0x55555558bec1,%rax
     b48:	55 00 00 
     b4b:	ff d0                	call   *%rax
     b4d:	48 8b 38             	mov    (%rax),%rdi
     b50:	48 8b 75 b0          	mov    -0x50(%rbp),%rsi
     b54:	4c 8b 45 b8          	mov    -0x48(%rbp),%r8
     b58:	44 29 c6             	sub    %r8d,%esi
     b5b:	49 b8 01 00 00 00 00 	movabs $0x1,%r8
     b62:	00 00 00 
     b65:	44 01 c6             	add    %r8d,%esi
     b68:	48 31 d2             	xor    %rdx,%rdx
     b6b:	89 f8                	mov    %edi,%eax
     b6d:	f7 fe                	idiv   %esi
     b6f:	89 d7                	mov    %edx,%edi
     b71:	48 8b 75 b8          	mov    -0x48(%rbp),%rsi
     b75:	01 f7                	add    %esi,%edi
     b77:	48 31 f6             	xor    %rsi,%rsi
     b7a:	89 75 b8             	mov    %esi,-0x48(%rbp)
     b7d:	48 31 f6             	xor    %rsi,%rsi
     b80:	89 75 b0             	mov    %esi,-0x50(%rbp)
     b83:	48 89 f8             	mov    %rdi,%rax
     b86:	c9                   	leave  
     b87:	c3                   	ret    
     b88:	48 31 ff             	xor    %rdi,%rdi
     b8b:	89 7d b8             	mov    %edi,-0x48(%rbp)
     b8e:	48 31 ff             	xor    %rdi,%rdi
     b91:	89 7d b0             	mov    %edi,-0x50(%rbp)
     b94:	48 31 ff             	xor    %rdi,%rdi
     b97:	48 89 f8             	mov    %rdi,%rax
     b9a:	c9                   	leave  
     b9b:	c3                   	ret    
     b9c:	55                   	push   %rbp
     b9d:	48 89 e5             	mov    %rsp,%rbp
     ba0:	48 81 ec 48 00 00 00 	sub    $0x48,%rsp
     ba7:	48 89 7d f8          	mov    %rdi,-0x8(%rbp)
     bab:	48 b8 00 5d 69 55 55 	movabs $0x555555695d00,%rax
     bb2:	55 00 00 
     bb5:	48 8b 00             	mov    (%rax),%rax
     bb8:	48 89 45 f0          	mov    %rax,-0x10(%rbp)
     bbc:	48 31 c0             	xor    %rax,%rax
     bbf:	48 89 45 b8          	mov    %rax,-0x48(%rbp)
     bc3:	48 b8 80 5c 69 55 55 	movabs $0x555555695c80,%rax
     bca:	55 00 00 
     bcd:	48 8b 48 00          	mov    0x0(%rax),%rcx
     bd1:	48 89 4d b8          	mov    %rcx,-0x48(%rbp)
     bd5:	48 8b 7d f8          	mov    -0x8(%rbp),%rdi
     bd9:	48 be 00 00 00 00 00 	movabs $0x0,%rsi
     be0:	00 00 00 
     be3:	48 b8 c1 be 58 55 55 	movabs $0x55555558bec1,%rax
     bea:	55 00 00 
     bed:	ff d0                	call   *%rax
     bef:	48 8b 38             	mov    (%rax),%rdi
     bf2:	48 31 f6             	xor    %rsi,%rsi
     bf5:	48 39 f7             	cmp    %rsi,%rdi
     bf8:	0f 84 08 00 00 00    	je     0xc06
     bfe:	48 31 ff             	xor    %rdi,%rdi
     c01:	e9 0a 00 00 00       	jmp    0xc10
     c06:	48 bf 01 00 00 00 00 	movabs $0x1,%rdi
     c0d:	00 00 00 
     c10:	48 81 ff 00 00 00 00 	cmp    $0x0,%rdi
     c17:	0f 84 28 00 00 00    	je     0xc45
     c1d:	48 8b 7d b8          	mov    -0x48(%rbp),%rdi
     c21:	57                   	push   %rdi
     c22:	48 8b 7d f8          	mov    -0x8(%rbp),%rdi
     c26:	48 be 00 00 00 00 00 	movabs $0x0,%rsi
     c2d:	00 00 00 
     c30:	48 b8 c1 be 58 55 55 	movabs $0x55555558bec1,%rax
     c37:	55 00 00 
     c3a:	ff d0                	call   *%rax
     c3c:	5f                   	pop    %rdi
     c3d:	48 89 38             	mov    %rdi,(%rax)
     c40:	e9 00 00 00 00       	jmp    0xc45
     c45:	48 31 ff             	xor    %rdi,%rdi
     c48:	48 89 7d b8          	mov    %rdi,-0x48(%rbp)
     c4c:	48 31 ff             	xor    %rdi,%rdi
     c4f:	48 31 c0             	xor    %rax,%rax
     c52:	c9                   	leave  
     c53:	c3                   	ret    
     c54:	55                   	push   %rbp
     c55:	48 89 e5             	mov    %rsp,%rbp
     c58:	48 81 ec 58 00 00 00 	sub    $0x58,%rsp
     c5f:	48 89 7d f8          	mov    %rdi,-0x8(%rbp)
     c63:	48 b8 00 5d 69 55 55 	movabs $0x555555695d00,%rax
     c6a:	55 00 00 
     c6d:	48 8b 00             	mov    (%rax),%rax
     c70:	48 89 45 f0          	mov    %rax,-0x10(%rbp)
     c74:	48 31 c0             	xor    %rax,%rax
     c77:	48 89 45 b8          	mov    %rax,-0x48(%rbp)
     c7b:	48 89 45 b0          	mov    %rax,-0x50(%rbp)
     c7f:	48 89 45 a8          	mov    %rax,-0x58(%rbp)
     c83:	48 b8 80 5c 69 55 55 	movabs $0x555555695c80,%rax
     c8a:	55 00 00 
     c8d:	48 8b 48 00          	mov    0x0(%rax),%rcx
     c91:	48 89 4d b8          	mov    %rcx,-0x48(%rbp)
     c95:	48 8b 48 08          	mov    0x8(%rax),%rcx
     c99:	48 89 4d b0          	mov    %rcx,-0x50(%rbp)
     c9d:	48 8b 48 10          	mov    0x10(%rax),%rcx
     ca1:	48 89 4d a8          	mov    %rcx,-0x58(%rbp)
     ca5:	48 8b 7d b0          	mov    -0x50(%rbp),%rdi
     ca9:	48 8b 75 a8          	mov    -0x58(%rbp),%rsi
     cad:	39 f7                	cmp    %esi,%edi
     caf:	0f 82 08 00 00 00    	jb     0xcbd
     cb5:	48 31 ff             	xor    %rdi,%rdi
     cb8:	e9 0a 00 00 00       	jmp    0xcc7
     cbd:	48 bf 01 00 00 00 00 	movabs $0x1,%rdi
     cc4:	00 00 00 
     cc7:	48 81 ff 00 00 00 00 	cmp    $0x0,%rdi
     cce:	0f 84 94 00 00 00    	je     0xd68
     cd4:	48 8b 7d b8          	mov    -0x48(%rbp),%rdi
     cd8:	48 81 ff 00 00 00 00 	cmp    $0x0,%rdi
     cdf:	0f 84 08 00 00 00    	je     0xced
     ce5:	48 ff 47 20          	incq   0x20(%rdi)
     ce9:	48 ff 47 28          	incq   0x28(%rdi)
     ced:	48 89 fe             	mov    %rdi,%rsi
     cf0:	48 81 ff 00 00 00 00 	cmp    $0x0,%rdi
     cf7:	0f 84 08 00 00 00    	je     0xd05
     cfd:	48 ff 47 20          	incq   0x20(%rdi)
     d01:	48 ff 47 28          	incq   0x28(%rdi)
     d05:	4c 8b 45 b0          	mov    -0x50(%rbp),%r8
     d09:	4c 8b 4d a8          	mov    -0x58(%rbp),%r9
     d0d:	48 b8 80 5c 69 55 55 	movabs $0x555555695c80,%rax
     d14:	55 00 00 
     d17:	48 89 70 00          	mov    %rsi,0x0(%rax)
     d1b:	4c 89 40 08          	mov    %r8,0x8(%rax)
     d1f:	4c 89 48 10          	mov    %r9,0x10(%rax)
     d23:	48 89 f9             	mov    %rdi,%rcx
     d26:	48 ff 49 20          	decq   0x20(%rcx)
     d2a:	48 ff 49 28          	decq   0x28(%rcx)
     d2e:	48 8b 51 18          	mov    0x18(%rcx),%rdx
     d32:	48 81 c2 38 00 00 00 	add    $0x38,%rdx
     d39:	48 8b 3a             	mov    (%rdx),%rdi
     d3c:	48 89 ff             	mov    %rdi,%rdi
     d3f:	48 b8 3f bd 58 55 55 	movabs $0x55555558bd3f,%rax
     d46:	55 00 00 
     d49:	ff d0                	call   *%rax
     d4b:	48 89 c7             	mov    %rax,%rdi
     d4e:	48 31 ff             	xor    %rdi,%rdi
     d51:	8b 7d b0             	mov    -0x50(%rbp),%edi
     d54:	ff 45 b0             	incl   -0x50(%rbp)
     d57:	48 31 ff             	xor    %rdi,%rdi
     d5a:	8b 7d a8             	mov    -0x58(%rbp),%edi
     d5d:	ff 4d a8             	decl   -0x58(%rbp)
     d60:	48 31 ff             	xor    %rdi,%rdi
     d63:	e9 3d ff ff ff       	jmp    0xca5
     d68:	48 31 ff             	xor    %rdi,%rdi
     d6b:	48 8b 4d b8          	mov    -0x48(%rbp),%rcx
     d6f:	48 31 d2             	xor    %rdx,%rdx
     d72:	48 39 d1             	cmp    %rdx,%rcx
     d75:	0f 84 23 00 00 00    	je     0xd9e
     d7b:	48 ff 49 20          	decq   0x20(%rcx)
     d7f:	48 ff 49 28          	decq   0x28(%rcx)
     d83:	48 39 51 20          	cmp    %rdx,0x20(%rcx)
     d87:	0f 85 11 00 00 00    	jne    0xd9e
     d8d:	57                   	push   %rdi
     d8e:	48 b8 7f 95 58 55 55 	movabs $0x55555558957f,%rax
     d95:	55 00 00 
     d98:	48 89 cf             	mov    %rcx,%rdi
     d9b:	ff d0                	call   *%rax
     d9d:	5f                   	pop    %rdi
     d9e:	48 89 7d b8          	mov    %rdi,-0x48(%rbp)
     da2:	48 31 ff             	xor    %rdi,%rdi
     da5:	89 7d b0             	mov    %edi,-0x50(%rbp)
     da8:	48 31 ff             	xor    %rdi,%rdi
     dab:	89 7d a8             	mov    %edi,-0x58(%rbp)
     dae:	48 31 ff             	xor    %rdi,%rdi
     db1:	48 31 c0             	xor    %rax,%rax
     db4:	c9                   	leave  
     db5:	c3                   	ret    
     db6:	55                   	push   %rbp
     db7:	48 89 e5             	mov    %rsp,%rbp
     dba:	48 81 ec 48 00 00 00 	sub    $0x48,%rsp
     dc1:	48 89 7d f8          	mov    %rdi,-0x8(%rbp)
     dc5:	48 b8 00 5d 69 55 55 	movabs $0x555555695d00,%rax
     dcc:	55 00 00 
     dcf:	48 8b 00             	mov    (%rax),%rax
     dd2:	48 89 45 f0          	mov    %rax,-0x10(%rbp)
     dd6:	48 31 c0             	xor    %rax,%rax
     dd9:	48 89 45 b8          	mov    %rax,-0x48(%rbp)
     ddd:	48 b8 80 5c 69 55 55 	movabs $0x555555695c80,%rax
     de4:	55 00 00 
     de7:	48 8b 48 00          	mov    0x0(%rax),%rcx
     deb:	48 89 4d b8          	mov    %rcx,-0x48(%rbp)
     def:	48 31 ff             	xor    %rdi,%rdi
     df2:	40 8a 7d f0          	mov    -0x10(%rbp),%dil
     df6:	48 b8 00 5d 69 55 55 	movabs $0x555555695d00,%rax
     dfd:	55 00 00 
     e00:	40 88 78 00          	mov    %dil,0x0(%rax)
     e04:	48 8b 7d b8          	mov    -0x48(%rbp),%rdi
     e08:	48 81 ff 00 00 00 00 	cmp    $0x0,%rdi
     e0f:	0f 84 08 00 00 00    	je     0xe1d
     e15:	48 ff 47 20          	incq   0x20(%rdi)
     e19:	48 ff 47 28          	incq   0x28(%rdi)
     e1d:	48 31 f6             	xor    %rsi,%rsi
     e20:	4c 8b 45 b8          	mov    -0x48(%rbp),%r8
     e24:	49 81 f8 00 00 00 00 	cmp    $0x0,%r8
     e2b:	0f 84 08 00 00 00    	je     0xe39
     e31:	49 ff 40 20          	incq   0x20(%r8)
     e35:	49 ff 40 28          	incq   0x28(%r8)
     e39:	4d 89 c1             	mov    %r8,%r9
     e3c:	49 81 f8 00 00 00 00 	cmp    $0x0,%r8
     e43:	0f 84 08 00 00 00    	je     0xe51
     e49:	49 ff 40 20          	incq   0x20(%r8)
     e4d:	49 ff 40 28          	incq   0x28(%r8)
     e51:	48 b8 80 5c 69 55 55 	movabs $0x555555695c80,%rax
     e58:	55 00 00 
     e5b:	4c 89 48 00          	mov    %r9,0x0(%rax)
     e5f:	4c 89 c1             	mov    %r8,%rcx
     e62:	48 ff 49 20          	decq   0x20(%rcx)
     e66:	48 ff 49 28          	decq   0x28(%rcx)
     e6a:	48 8b 51 18          	mov    0x18(%rcx),%rdx
     e6e:	48 81 c2 30 00 00 00 	add    $0x30,%rdx
     e75:	4c 8b 02             	mov    (%rdx),%r8
     e78:	57                   	push   %rdi
     e79:	56                   	push   %rsi
     e7a:	4c 89 c7             	mov    %r8,%rdi
     e7d:	48 b8 3f bd 58 55 55 	movabs $0x55555558bd3f,%rax
     e84:	55 00 00 
     e87:	ff d0                	call   *%rax
     e89:	5e                   	pop    %rsi
     e8a:	5f                   	pop    %rdi
     e8b:	49 89 c0             	mov    %rax,%r8
     e8e:	49 b9 01 00 00 00 00 	movabs $0x1,%r9
     e95:	00 00 00 
     e98:	45 29 c8             	sub    %r9d,%r8d
     e9b:	48 b8 80 5c 69 55 55 	movabs $0x555555695c80,%rax
     ea2:	55 00 00 
     ea5:	48 89 78 00          	mov    %rdi,0x0(%rax)
     ea9:	48 89 70 08          	mov    %rsi,0x8(%rax)
     ead:	4c 89 40 10          	mov    %r8,0x10(%rax)
     eb1:	48 8b 4d f8          	mov    -0x8(%rbp),%rcx
     eb5:	48 8b 51 10          	mov    0x10(%rcx),%rdx
     eb9:	48 8b 42 00          	mov    0x0(%rdx),%rax
     ebd:	48 89 c7             	mov    %rax,%rdi
     ec0:	48 8b 40 68          	mov    0x68(%rax),%rax
     ec4:	48 b9 f4 08 00 00 00 	movabs $0x8f4,%rcx
     ecb:	00 00 00 
     ece:	48 8b 04 c8          	mov    (%rax,%rcx,8),%rax
     ed2:	ff d0                	call   *%rax
     ed4:	48 89 c7             	mov    %rax,%rdi
     ed7:	48 31 ff             	xor    %rdi,%rdi
     eda:	48 31 ff             	xor    %rdi,%rdi
     edd:	48 8b 4d b8          	mov    -0x48(%rbp),%rcx
     ee1:	48 31 d2             	xor    %rdx,%rdx
     ee4:	48 39 d1             	cmp    %rdx,%rcx
     ee7:	0f 84 23 00 00 00    	je     0xf10
     eed:	48 ff 49 20          	decq   0x20(%rcx)
     ef1:	48 ff 49 28          	decq   0x28(%rcx)
     ef5:	48 39 51 20          	cmp    %rdx,0x20(%rcx)
     ef9:	0f 85 11 00 00 00    	jne    0xf10
     eff:	57                   	push   %rdi
     f00:	48 b8 7f 95 58 55 55 	movabs $0x55555558957f,%rax
     f07:	55 00 00 
     f0a:	48 89 cf             	mov    %rcx,%rdi
     f0d:	ff d0                	call   *%rax
     f0f:	5f                   	pop    %rdi
     f10:	48 89 7d b8          	mov    %rdi,-0x48(%rbp)
     f14:	48 31 ff             	xor    %rdi,%rdi
     f17:	48 31 c0             	xor    %rax,%rax
     f1a:	c9                   	leave  
     f1b:	c3                   	ret    
     f1c:	55                   	push   %rbp
     f1d:	48 89 e5             	mov    %rsp,%rbp
     f20:	48 81 ec 70 00 00 00 	sub    $0x70,%rsp
     f27:	48 89 7d f8          	mov    %rdi,-0x8(%rbp)
     f2b:	48 b8 00 5d 69 55 55 	movabs $0x555555695d00,%rax
     f32:	55 00 00 
     f35:	48 8b 00             	mov    (%rax),%rax
     f38:	48 89 45 f0          	mov    %rax,-0x10(%rbp)
     f3c:	48 31 c0             	xor    %rax,%rax
     f3f:	48 89 45 b8          	mov    %rax,-0x48(%rbp)
     f43:	48 89 45 b0          	mov    %rax,-0x50(%rbp)
     f47:	48 89 45 a8          	mov    %rax,-0x58(%rbp)
     f4b:	48 89 45 a0          	mov    %rax,-0x60(%rbp)
     f4f:	48 89 45 98          	mov    %rax,-0x68(%rbp)
     f53:	48 89 45 90          	mov    %rax,-0x70(%rbp)
     f57:	48 b8 80 5c 69 55 55 	movabs $0x555555695c80,%rax
     f5e:	55 00 00 
     f61:	48 8b 48 00          	mov    0x0(%rax),%rcx
     f65:	48 89 4d b8          	mov    %rcx,-0x48(%rbp)
     f69:	48 8b 48 08          	mov    0x8(%rax),%rcx
     f6d:	48 89 4d b0          	mov    %rcx,-0x50(%rbp)
     f71:	48 8b 48 10          	mov    0x10(%rax),%rcx
     f75:	48 89 4d a8          	mov    %rcx,-0x58(%rbp)
     f79:	48 8b 48 18          	mov    0x18(%rax),%rcx
     f7d:	48 89 4d a0          	mov    %rcx,-0x60(%rbp)
     f81:	48 8b 7d a8          	mov    -0x58(%rbp),%rdi
     f85:	48 8b 75 a0          	mov    -0x60(%rbp),%rsi
     f89:	39 f7                	cmp    %esi,%edi
     f8b:	0f 8d 08 00 00 00    	jge    0xf99
     f91:	48 31 ff             	xor    %rdi,%rdi
     f94:	e9 0a 00 00 00       	jmp    0xfa3
     f99:	48 bf 01 00 00 00 00 	movabs $0x1,%rdi
     fa0:	00 00 00 
     fa3:	48 81 ff 00 00 00 00 	cmp    $0x0,%rdi
     faa:	0f 84 0d 00 00 00    	je     0xfbd
     fb0:	48 31 ff             	xor    %rdi,%rdi
     fb3:	48 31 c0             	xor    %rax,%rax
     fb6:	c9                   	leave  
     fb7:	c3                   	ret    
     fb8:	e9 00 00 00 00       	jmp    0xfbd
     fbd:	48 8b 7d a8          	mov    -0x58(%rbp),%rdi
     fc1:	89 7d 98             	mov    %edi,-0x68(%rbp)
     fc4:	48 8b 7d a0          	mov    -0x60(%rbp),%rdi
     fc8:	89 7d 90             	mov    %edi,-0x70(%rbp)
     fcb:	48 8b 7d b8          	mov    -0x48(%rbp),%rdi
     fcf:	48 81 ff 00 00 00 00 	cmp    $0x0,%rdi
     fd6:	0f 84 08 00 00 00    	je     0xfe4
     fdc:	48 ff 47 20          	incq   0x20(%rdi)
     fe0:	48 ff 47 28          	incq   0x28(%rdi)
     fe4:	48 89 fe             	mov    %rdi,%rsi
     fe7:	48 81 ff 00 00 00 00 	cmp    $0x0,%rdi
     fee:	0f 84 08 00 00 00    	je     0xffc
     ff4:	48 ff 47 20          	incq   0x20(%rdi)
     ff8:	48 ff 47 28          	incq   0x28(%rdi)
     ffc:	4c 8b 45 a8          	mov    -0x58(%rbp),%r8
    1000:	4c 8b 4d a8          	mov    -0x58(%rbp),%r9
    1004:	4c 8b 55 a0          	mov    -0x60(%rbp),%r10
    1008:	48 b8 80 5c 69 55 55 	movabs $0x555555695c80,%rax
    100f:	55 00 00 
    1012:	4c 89 48 00          	mov    %r9,0x0(%rax)
    1016:	4c 89 50 08          	mov    %r10,0x8(%rax)
    101a:	48 8b 4d f8          	mov    -0x8(%rbp),%rcx
    101e:	48 8b 51 10          	mov    0x10(%rcx),%rdx
    1022:	48 8b 42 00          	mov    0x0(%rdx),%rax
    1026:	57                   	push   %rdi
    1027:	56                   	push   %rsi
    1028:	41 50                	push   %r8
    102a:	48 89 c7             	mov    %rax,%rdi
    102d:	48 8b 40 68          	mov    0x68(%rax),%rax
    1031:	48 b9 38 07 00 00 00 	movabs $0x738,%rcx
    1038:	00 00 00 
    103b:	48 8b 04 c8          	mov    (%rax,%rcx,8),%rax
    103f:	ff d0                	call   *%rax
    1041:	41 58                	pop    %r8
    1043:	5e                   	pop    %rsi
    1044:	5f                   	pop    %rdi
    1045:	49 89 c1             	mov    %rax,%r9
    1048:	48 b8 80 5c 69 55 55 	movabs $0x555555695c80,%rax
    104f:	55 00 00 
    1052:	48 89 70 00          	mov    %rsi,0x0(%rax)
    1056:	4c 89 40 08          	mov    %r8,0x8(%rax)
    105a:	4c 89 48 10          	mov    %r9,0x10(%rax)
    105e:	48 89 f9             	mov    %rdi,%rcx
    1061:	48 ff 49 20          	decq   0x20(%rcx)
    1065:	48 ff 49 28          	decq   0x28(%rcx)
    1069:	48 8b 51 18          	mov    0x18(%rcx),%rdx
    106d:	48 81 c2 38 00 00 00 	add    $0x38,%rdx
    1074:	48 8b 3a             	mov    (%rdx),%rdi
    1077:	48 89 ff             	mov    %rdi,%rdi
    107a:	48 b8 3f bd 58 55 55 	movabs $0x55555558bd3f,%rax
    1081:	55 00 00 
    1084:	ff d0                	call   *%rax
    1086:	48 89 c7             	mov    %rax,%rdi
    1089:	48 31 ff             	xor    %rdi,%rdi
    108c:	48 8b 7d 98          	mov    -0x68(%rbp),%rdi
    1090:	48 8b 75 90          	mov    -0x70(%rbp),%rsi
    1094:	39 f7                	cmp    %esi,%edi
    1096:	0f 8c 08 00 00 00    	jl     0x10a4
    109c:	48 31 ff             	xor    %rdi,%rdi
    109f:	e9 0a 00 00 00       	jmp    0x10ae
    10a4:	48 bf 01 00 00 00 00 	movabs $0x1,%rdi
    10ab:	00 00 00 
    10ae:	48 81 ff 00 00 00 00 	cmp    $0x0,%rdi
    10b5:	0f 84 9a 04 00 00    	je     0x1555
    10bb:	48 8b 7d 98          	mov    -0x68(%rbp),%rdi
    10bf:	48 8b 75 a0          	mov    -0x60(%rbp),%rsi
    10c3:	39 f7                	cmp    %esi,%edi
    10c5:	0f 8c 08 00 00 00    	jl     0x10d3
    10cb:	48 31 ff             	xor    %rdi,%rdi
    10ce:	e9 0a 00 00 00       	jmp    0x10dd
    10d3:	48 bf 01 00 00 00 00 	movabs $0x1,%rdi
    10da:	00 00 00 
    10dd:	48 81 ff 00 00 00 00 	cmp    $0x0,%rdi
    10e4:	0f 84 9b 01 00 00    	je     0x1285
    10ea:	48 8b 7d b0          	mov    -0x50(%rbp),%rdi
    10ee:	48 81 ff 00 00 00 00 	cmp    $0x0,%rdi
    10f5:	0f 84 08 00 00 00    	je     0x1103
    10fb:	48 ff 47 20          	incq   0x20(%rdi)
    10ff:	48 ff 47 28          	incq   0x28(%rdi)
    1103:	48 89 fe             	mov    %rdi,%rsi
    1106:	48 81 ff 00 00 00 00 	cmp    $0x0,%rdi
    110d:	0f 84 08 00 00 00    	je     0x111b
    1113:	48 ff 47 20          	incq   0x20(%rdi)
    1117:	48 ff 47 28          	incq   0x28(%rdi)
    111b:	4c 8b 45 b8          	mov    -0x48(%rbp),%r8
    111f:	49 81 f8 00 00 00 00 	cmp    $0x0,%r8
    1126:	0f 84 08 00 00 00    	je     0x1134
    112c:	49 ff 40 20          	incq   0x20(%r8)
    1130:	49 ff 40 28          	incq   0x28(%r8)
    1134:	4d 89 c1             	mov    %r8,%r9
    1137:	49 81 f8 00 00 00 00 	cmp    $0x0,%r8
    113e:	0f 84 08 00 00 00    	je     0x114c
    1144:	49 ff 40 20          	incq   0x20(%r8)
    1148:	49 ff 40 28          	incq   0x28(%r8)
    114c:	4c 8b 55 98          	mov    -0x68(%rbp),%r10
    1150:	48 b8 80 5c 69 55 55 	movabs $0x555555695c80,%rax
    1157:	55 00 00 
    115a:	4c 89 48 00          	mov    %r9,0x0(%rax)
    115e:	4c 89 50 08          	mov    %r10,0x8(%rax)
    1162:	4c 89 c1             	mov    %r8,%rcx
    1165:	48 ff 49 20          	decq   0x20(%rcx)
    1169:	48 ff 49 28          	decq   0x28(%rcx)
    116d:	48 8b 51 18          	mov    0x18(%rcx),%rdx
    1171:	48 81 c2 18 00 00 00 	add    $0x18,%rdx
    1178:	4c 8b 02             	mov    (%rdx),%r8
    117b:	57                   	push   %rdi
    117c:	56                   	push   %rsi
    117d:	4c 89 c7             	mov    %r8,%rdi
    1180:	48 b8 3f bd 58 55 55 	movabs $0x55555558bd3f,%rax
    1187:	55 00 00 
    118a:	ff d0                	call   *%rax
    118c:	5e                   	pop    %rsi
    118d:	5f                   	pop    %rdi
    118e:	49 89 c0             	mov    %rax,%r8
    1191:	4c 8b 4d b8          	mov    -0x48(%rbp),%r9
    1195:	49 81 f9 00 00 00 00 	cmp    $0x0,%r9
    119c:	0f 84 08 00 00 00    	je     0x11aa
    11a2:	49 ff 41 20          	incq   0x20(%r9)
    11a6:	49 ff 41 28          	incq   0x28(%r9)
    11aa:	4d 89 ca             	mov    %r9,%r10
    11ad:	49 81 f9 00 00 00 00 	cmp    $0x0,%r9
    11b4:	0f 84 08 00 00 00    	je     0x11c2
    11ba:	49 ff 41 20          	incq   0x20(%r9)
    11be:	49 ff 41 28          	incq   0x28(%r9)
    11c2:	4c 8b 5d a8          	mov    -0x58(%rbp),%r11
    11c6:	48 b8 80 5c 69 55 55 	movabs $0x555555695c80,%rax
    11cd:	55 00 00 
    11d0:	4c 89 50 00          	mov    %r10,0x0(%rax)
    11d4:	4c 89 58 08          	mov    %r11,0x8(%rax)
    11d8:	4c 89 c9             	mov    %r9,%rcx
    11db:	48 ff 49 20          	decq   0x20(%rcx)
    11df:	48 ff 49 28          	decq   0x28(%rcx)
    11e3:	48 8b 51 18          	mov    0x18(%rcx),%rdx
    11e7:	48 81 c2 18 00 00 00 	add    $0x18,%rdx
    11ee:	4c 8b 0a             	mov    (%rdx),%r9
    11f1:	57                   	push   %rdi
    11f2:	56                   	push   %rsi
    11f3:	41 50                	push   %r8
    11f5:	4c 89 cf             	mov    %r9,%rdi
    11f8:	48 b8 3f bd 58 55 55 	movabs $0x55555558bd3f,%rax
    11ff:	55 00 00 
    1202:	ff d0                	call   *%rax
    1204:	41 58                	pop    %r8
    1206:	5e                   	pop    %rsi
    1207:	5f                   	pop    %rdi
    1208:	49 89 c1             	mov    %rax,%r9
    120b:	48 b8 80 5c 69 55 55 	movabs $0x555555695c80,%rax
    1212:	55 00 00 
    1215:	48 89 70 00          	mov    %rsi,0x0(%rax)
    1219:	4c 89 40 08          	mov    %r8,0x8(%rax)
    121d:	4c 89 48 10          	mov    %r9,0x10(%rax)
    1221:	48 89 f9             	mov    %rdi,%rcx
    1224:	48 ff 49 20          	decq   0x20(%rcx)
    1228:	48 ff 49 28          	decq   0x28(%rcx)
    122c:	48 8b 51 18          	mov    0x18(%rcx),%rdx
    1230:	48 81 c2 18 00 00 00 	add    $0x18,%rdx
    1237:	48 8b 3a             	mov    (%rdx),%rdi
    123a:	48 89 ff             	mov    %rdi,%rdi
    123d:	48 b8 3f bd 58 55 55 	movabs $0x55555558bd3f,%rax
    1244:	55 00 00 
    1247:	ff d0                	call   *%rax
    1249:	48 89 c7             	mov    %rax,%rdi
    124c:	48 31 f6             	xor    %rsi,%rsi
    124f:	39 f7                	cmp    %esi,%edi
    1251:	0f 8e 08 00 00 00    	jle    0x125f
    1257:	48 31 ff             	xor    %rdi,%rdi
    125a:	e9 0a 00 00 00       	jmp    0x1269
    125f:	48 bf 01 00 00 00 00 	movabs $0x1,%rdi
    1266:	00 00 00 
    1269:	48 81 ff 00 00 00 00 	cmp    $0x0,%rdi
    1270:	0f 84 0f 00 00 00    	je     0x1285
    1276:	48 b8 01 00 00 00 00 	movabs $0x1,%rax
    127d:	00 00 00 
    1280:	e9 0a 00 00 00       	jmp    0x128f
    1285:	48 b8 00 00 00 00 00 	movabs $0x0,%rax
    128c:	00 00 00 
    128f:	48 89 c7             	mov    %rax,%rdi
    1292:	48 81 ff 00 00 00 00 	cmp    $0x0,%rdi
    1299:	0f 84 0e 00 00 00    	je     0x12ad
    129f:	8b 7d 98             	mov    -0x68(%rbp),%edi
    12a2:	ff 45 98             	incl   -0x68(%rbp)
    12a5:	48 31 ff             	xor    %rdi,%rdi
    12a8:	e9 0e fe ff ff       	jmp    0x10bb
    12ad:	48 8b 7d 90          	mov    -0x70(%rbp),%rdi
    12b1:	48 8b 75 a8          	mov    -0x58(%rbp),%rsi
    12b5:	39 f7                	cmp    %esi,%edi
    12b7:	0f 8f 08 00 00 00    	jg     0x12c5
    12bd:	48 31 ff             	xor    %rdi,%rdi
    12c0:	e9 0a 00 00 00       	jmp    0x12cf
    12c5:	48 bf 01 00 00 00 00 	movabs $0x1,%rdi
    12cc:	00 00 00 
    12cf:	48 81 ff 00 00 00 00 	cmp    $0x0,%rdi
    12d6:	0f 84 9b 01 00 00    	je     0x1477
    12dc:	48 8b 7d b0          	mov    -0x50(%rbp),%rdi
    12e0:	48 81 ff 00 00 00 00 	cmp    $0x0,%rdi
    12e7:	0f 84 08 00 00 00    	je     0x12f5
    12ed:	48 ff 47 20          	incq   0x20(%rdi)
    12f1:	48 ff 47 28          	incq   0x28(%rdi)
    12f5:	48 89 fe             	mov    %rdi,%rsi
    12f8:	48 81 ff 00 00 00 00 	cmp    $0x0,%rdi
    12ff:	0f 84 08 00 00 00    	je     0x130d
    1305:	48 ff 47 20          	incq   0x20(%rdi)
    1309:	48 ff 47 28          	incq   0x28(%rdi)
    130d:	4c 8b 45 b8          	mov    -0x48(%rbp),%r8
    1311:	49 81 f8 00 00 00 00 	cmp    $0x0,%r8
    1318:	0f 84 08 00 00 00    	je     0x1326
    131e:	49 ff 40 20          	incq   0x20(%r8)
    1322:	49 ff 40 28          	incq   0x28(%r8)
    1326:	4d 89 c1             	mov    %r8,%r9
    1329:	49 81 f8 00 00 00 00 	cmp    $0x0,%r8
    1330:	0f 84 08 00 00 00    	je     0x133e
    1336:	49 ff 40 20          	incq   0x20(%r8)
    133a:	49 ff 40 28          	incq   0x28(%r8)
    133e:	4c 8b 55 90          	mov    -0x70(%rbp),%r10
    1342:	48 b8 80 5c 69 55 55 	movabs $0x555555695c80,%rax
    1349:	55 00 00 
    134c:	4c 89 48 00          	mov    %r9,0x0(%rax)
    1350:	4c 89 50 08          	mov    %r10,0x8(%rax)
    1354:	4c 89 c1             	mov    %r8,%rcx
    1357:	48 ff 49 20          	decq   0x20(%rcx)
    135b:	48 ff 49 28          	decq   0x28(%rcx)
    135f:	48 8b 51 18          	mov    0x18(%rcx),%rdx
    1363:	48 81 c2 18 00 00 00 	add    $0x18,%rdx
    136a:	4c 8b 02             	mov    (%rdx),%r8
    136d:	57                   	push   %rdi
    136e:	56                   	push   %rsi
    136f:	4c 89 c7             	mov    %r8,%rdi
    1372:	48 b8 3f bd 58 55 55 	movabs $0x55555558bd3f,%rax
    1379:	55 00 00 
    137c:	ff d0                	call   *%rax
    137e:	5e                   	pop    %rsi
    137f:	5f                   	pop    %rdi
    1380:	49 89 c0             	mov    %rax,%r8
    1383:	4c 8b 4d b8          	mov    -0x48(%rbp),%r9
    1387:	49 81 f9 00 00 00 00 	cmp    $0x0,%r9
    138e:	0f 84 08 00 00 00    	je     0x139c
    1394:	49 ff 41 20          	incq   0x20(%r9)
    1398:	49 ff 41 28          	incq   0x28(%r9)
    139c:	4d 89 ca             	mov    %r9,%r10
    139f:	49 81 f9 00 00 00 00 	cmp    $0x0,%r9
    13a6:	0f 84 08 00 00 00    	je     0x13b4
    13ac:	49 ff 41 20          	incq   0x20(%r9)
    13b0:	49 ff 41 28          	incq   0x28(%r9)
    13b4:	4c 8b 5d a8          	mov    -0x58(%rbp),%r11
    13b8:	48 b8 80 5c 69 55 55 	movabs $0x555555695c80,%rax
    13bf:	55 00 00 
    13c2:	4c 89 50 00          	mov    %r10,0x0(%rax)
    13c6:	4c 89 58 08          	mov    %r11,0x8(%rax)
    13ca:	4c 89 c9             	mov    %r9,%rcx
    13cd:	48 ff 49 20          	decq   0x20(%rcx)
    13d1:	48 ff 49 28          	decq   0x28(%rcx)
    13d5:	48 8b 51 18          	mov    0x18(%rcx),%rdx
    13d9:	48 81 c2 18 00 00 00 	add    $0x18,%rdx
    13e0:	4c 8b 0a             	mov    (%rdx),%r9
    13e3:	57                   	push   %rdi
    13e4:	56                   	push   %rsi
    13e5:	41 50                	push   %r8
    13e7:	4c 89 cf             	mov    %r9,%rdi
    13ea:	48 b8 3f bd 58 55 55 	movabs $0x55555558bd3f,%rax
    13f1:	55 00 00 
    13f4:	ff d0                	call   *%rax
    13f6:	41 58                	pop    %r8
    13f8:	5e                   	pop    %rsi
    13f9:	5f                   	pop    %rdi
    13fa:	49 89 c1             	mov    %rax,%r9
    13fd:	48 b8 80 5c 69 55 55 	movabs $0x555555695c80,%rax
    1404:	55 00 00 
    1407:	48 89 70 00          	mov    %rsi,0x0(%rax)
    140b:	4c 89 40 08          	mov    %r8,0x8(%rax)
    140f:	4c 89 48 10          	mov    %r9,0x10(%rax)
    1413:	48 89 f9             	mov    %rdi,%rcx
    1416:	48 ff 49 20          	decq   0x20(%rcx)
    141a:	48 ff 49 28          	decq   0x28(%rcx)
    141e:	48 8b 51 18          	mov    0x18(%rcx),%rdx
    1422:	48 81 c2 18 00 00 00 	add    $0x18,%rdx
    1429:	48 8b 3a             	mov    (%rdx),%rdi
    142c:	48 89 ff             	mov    %rdi,%rdi
    142f:	48 b8 3f bd 58 55 55 	movabs $0x55555558bd3f,%rax
    1436:	55 00 00 
    1439:	ff d0                	call   *%rax
    143b:	48 89 c7             	mov    %rax,%rdi
    143e:	48 31 f6             	xor    %rsi,%rsi
    1441:	39 f7                	cmp    %esi,%edi
    1443:	0f 8d 08 00 00 00    	jge    0x1451
    1449:	48 31 ff             	xor    %rdi,%rdi
    144c:	e9 0a 00 00 00       	jmp    0x145b
    1451:	48 bf 01 00 00 00 00 	movabs $0x1,%rdi
    1458:	00 00 00 
    145b:	48 81 ff 00 00 00 00 	cmp    $0x0,%rdi
    1462:	0f 84 0f 00 00 00    	je     0x1477
    1468:	48 b8 01 00 00 00 00 	movabs $0x1,%rax
    146f:	00 00 00 
    1472:	e9 0a 00 00 00       	jmp    0x1481
    1477:	48 b8 00 00 00 00 00 	movabs $0x0,%rax
    147e:	00 00 00 
    1481:	48 89 c7             	mov    %rax,%rdi
    1484:	48 81 ff 00 00 00 00 	cmp    $0x0,%rdi
    148b:	0f 84 0e 00 00 00    	je     0x149f
    1491:	8b 7d 90             	mov    -0x70(%rbp),%edi
    1494:	ff 4d 90             	decl   -0x70(%rbp)
    1497:	48 31 ff             	xor    %rdi,%rdi
    149a:	e9 0e fe ff ff       	jmp    0x12ad
    149f:	48 8b 7d 98          	mov    -0x68(%rbp),%rdi
    14a3:	48 8b 75 90          	mov    -0x70(%rbp),%rsi
    14a7:	39 f7                	cmp    %esi,%edi
    14a9:	0f 8c 08 00 00 00    	jl     0x14b7
    14af:	48 31 ff             	xor    %rdi,%rdi
    14b2:	e9 0a 00 00 00       	jmp    0x14c1
    14b7:	48 bf 01 00 00 00 00 	movabs $0x1,%rdi
    14be:	00 00 00 
    14c1:	48 81 ff 00 00 00 00 	cmp    $0x0,%rdi
    14c8:	0f 84 82 00 00 00    	je     0x1550
    14ce:	48 8b 7d b8          	mov    -0x48(%rbp),%rdi
    14d2:	48 81 ff 00 00 00 00 	cmp    $0x0,%rdi
    14d9:	0f 84 08 00 00 00    	je     0x14e7
    14df:	48 ff 47 20          	incq   0x20(%rdi)
    14e3:	48 ff 47 28          	incq   0x28(%rdi)
    14e7:	48 89 fe             	mov    %rdi,%rsi
    14ea:	48 81 ff 00 00 00 00 	cmp    $0x0,%rdi
    14f1:	0f 84 08 00 00 00    	je     0x14ff
    14f7:	48 ff 47 20          	incq   0x20(%rdi)
    14fb:	48 ff 47 28          	incq   0x28(%rdi)
    14ff:	4c 8b 45 98          	mov    -0x68(%rbp),%r8
    1503:	4c 8b 4d 90          	mov    -0x70(%rbp),%r9
    1507:	48 b8 80 5c 69 55 55 	movabs $0x555555695c80,%rax
    150e:	55 00 00 
    1511:	48 89 70 00          	mov    %rsi,0x0(%rax)
    1515:	4c 89 40 08          	mov    %r8,0x8(%rax)
    1519:	4c 89 48 10          	mov    %r9,0x10(%rax)
    151d:	48 89 f9             	mov    %rdi,%rcx
    1520:	48 ff 49 20          	decq   0x20(%rcx)
    1524:	48 ff 49 28          	decq   0x28(%rcx)
    1528:	48 8b 51 18          	mov    0x18(%rcx),%rdx
    152c:	48 81 c2 38 00 00 00 	add    $0x38,%rdx
    1533:	48 8b 3a             	mov    (%rdx),%rdi
    1536:	48 89 ff             	mov    %rdi,%rdi
    1539:	48 b8 3f bd 58 55 55 	movabs $0x55555558bd3f,%rax
    1540:	55 00 00 
    1543:	ff d0                	call   *%rax
    1545:	48 89 c7             	mov    %rax,%rdi
    1548:	48 31 ff             	xor    %rdi,%rdi
    154b:	e9 00 00 00 00       	jmp    0x1550
    1550:	e9 37 fb ff ff       	jmp    0x108c
    1555:	48 8b 7d b8          	mov    -0x48(%rbp),%rdi
    1559:	48 81 ff 00 00 00 00 	cmp    $0x0,%rdi
    1560:	0f 84 08 00 00 00    	je     0x156e
    1566:	48 ff 47 20          	incq   0x20(%rdi)
    156a:	48 ff 47 28          	incq   0x28(%rdi)
    156e:	48 89 fe             	mov    %rdi,%rsi
    1571:	48 81 ff 00 00 00 00 	cmp    $0x0,%rdi
    1578:	0f 84 08 00 00 00    	je     0x1586
    157e:	48 ff 47 20          	incq   0x20(%rdi)
    1582:	48 ff 47 28          	incq   0x28(%rdi)
    1586:	4c 8b 45 a8          	mov    -0x58(%rbp),%r8
    158a:	4c 8b 4d 90          	mov    -0x70(%rbp),%r9
    158e:	48 b8 80 5c 69 55 55 	movabs $0x555555695c80,%rax
    1595:	55 00 00 
    1598:	48 89 70 00          	mov    %rsi,0x0(%rax)
    159c:	4c 89 40 08          	mov    %r8,0x8(%rax)
    15a0:	4c 89 48 10          	mov    %r9,0x10(%rax)
    15a4:	48 89 f9             	mov    %rdi,%rcx
    15a7:	48 ff 49 20          	decq   0x20(%rcx)
    15ab:	48 ff 49 28          	decq   0x28(%rcx)
    15af:	48 8b 51 18          	mov    0x18(%rcx),%rdx
    15b3:	48 81 c2 38 00 00 00 	add    $0x38,%rdx
    15ba:	48 8b 3a             	mov    (%rdx),%rdi
    15bd:	48 89 ff             	mov    %rdi,%rdi
    15c0:	48 b8 3f bd 58 55 55 	movabs $0x55555558bd3f,%rax
    15c7:	55 00 00 
    15ca:	ff d0                	call   *%rax
    15cc:	48 89 c7             	mov    %rax,%rdi
    15cf:	48 31 ff             	xor    %rdi,%rdi
    15d2:	48 31 ff             	xor    %rdi,%rdi
    15d5:	40 8a 7d f0          	mov    -0x10(%rbp),%dil
    15d9:	48 b8 00 5d 69 55 55 	movabs $0x555555695d00,%rax
    15e0:	55 00 00 
    15e3:	40 88 78 00          	mov    %dil,0x0(%rax)
    15e7:	48 8b 7d b8          	mov    -0x48(%rbp),%rdi
    15eb:	48 81 ff 00 00 00 00 	cmp    $0x0,%rdi
    15f2:	0f 84 08 00 00 00    	je     0x1600
    15f8:	48 ff 47 20          	incq   0x20(%rdi)
    15fc:	48 ff 47 28          	incq   0x28(%rdi)
    1600:	48 8b 75 b0          	mov    -0x50(%rbp),%rsi
    1604:	48 81 fe 00 00 00 00 	cmp    $0x0,%rsi
    160b:	0f 84 08 00 00 00    	je     0x1619
    1611:	48 ff 46 20          	incq   0x20(%rsi)
    1615:	48 ff 46 28          	incq   0x28(%rsi)
    1619:	4c 8b 45 a8          	mov    -0x58(%rbp),%r8
    161d:	4c 8b 4d 90          	mov    -0x70(%rbp),%r9
    1621:	49 ba 01 00 00 00 00 	movabs $0x1,%r10
    1628:	00 00 00 
    162b:	45 29 d1             	sub    %r10d,%r9d
    162e:	48 b8 80 5c 69 55 55 	movabs $0x555555695c80,%rax
    1635:	55 00 00 
    1638:	48 89 78 00          	mov    %rdi,0x0(%rax)
    163c:	48 89 70 08          	mov    %rsi,0x8(%rax)
    1640:	4c 89 40 10          	mov    %r8,0x10(%rax)
    1644:	4c 89 48 18          	mov    %r9,0x18(%rax)
    1648:	48 8b 4d f8          	mov    -0x8(%rbp),%rcx
    164c:	48 8b 51 10          	mov    0x10(%rcx),%rdx
    1650:	48 8b 42 00          	mov    0x0(%rdx),%rax
    1654:	48 89 c7             	mov    %rax,%rdi
    1657:	48 8b 40 68          	mov    0x68(%rax),%rax
    165b:	48 b9 c8 0a 00 00 00 	movabs $0xac8,%rcx
    1662:	00 00 00 
    1665:	48 8b 04 c8          	mov    (%rax,%rcx,8),%rax
    1669:	ff d0                	call   *%rax
    166b:	48 89 c7             	mov    %rax,%rdi
    166e:	48 31 ff             	xor    %rdi,%rdi
    1671:	48 31 ff             	xor    %rdi,%rdi
    1674:	40 8a 7d f0          	mov    -0x10(%rbp),%dil
    1678:	48 b8 00 5d 69 55 55 	movabs $0x555555695d00,%rax
    167f:	55 00 00 
    1682:	40 88 78 00          	mov    %dil,0x0(%rax)
    1686:	48 8b 7d b8          	mov    -0x48(%rbp),%rdi
    168a:	48 81 ff 00 00 00 00 	cmp    $0x0,%rdi
    1691:	0f 84 08 00 00 00    	je     0x169f
    1697:	48 ff 47 20          	incq   0x20(%rdi)
    169b:	48 ff 47 28          	incq   0x28(%rdi)
    169f:	48 8b 75 b0          	mov    -0x50(%rbp),%rsi
    16a3:	48 81 fe 00 00 00 00 	cmp    $0x0,%rsi
    16aa:	0f 84 08 00 00 00    	je     0x16b8
    16b0:	48 ff 46 20          	incq   0x20(%rsi)
    16b4:	48 ff 46 28          	incq   0x28(%rsi)
    16b8:	4c 8b 45 90          	mov    -0x70(%rbp),%r8
    16bc:	49 b9 01 00 00 00 00 	movabs $0x1,%r9
    16c3:	00 00 00 
    16c6:	45 01 c8             	add    %r9d,%r8d
    16c9:	4c 8b 4d a0          	mov    -0x60(%rbp),%r9
    16cd:	48 b8 80 5c 69 55 55 	movabs $0x555555695c80,%rax
    16d4:	55 00 00 
    16d7:	48 89 78 00          	mov    %rdi,0x0(%rax)
    16db:	48 89 70 08          	mov    %rsi,0x8(%rax)
    16df:	4c 89 40 10          	mov    %r8,0x10(%rax)
    16e3:	4c 89 48 18          	mov    %r9,0x18(%rax)
    16e7:	48 8b 4d f8          	mov    -0x8(%rbp),%rcx
    16eb:	48 8b 51 10          	mov    0x10(%rcx),%rdx
    16ef:	48 8b 42 00          	mov    0x0(%rdx),%rax
    16f3:	48 89 c7             	mov    %rax,%rdi
    16f6:	48 8b 40 68          	mov    0x68(%rax),%rax
    16fa:	48 b9 c8 0a 00 00 00 	movabs $0xac8,%rcx
    1701:	00 00 00 
    1704:	48 8b 04 c8          	mov    (%rax,%rcx,8),%rax
    1708:	ff d0                	call   *%rax
    170a:	48 89 c7             	mov    %rax,%rdi
    170d:	48 31 ff             	xor    %rdi,%rdi
    1710:	48 31 ff             	xor    %rdi,%rdi
    1713:	89 7d 90             	mov    %edi,-0x70(%rbp)
    1716:	48 31 ff             	xor    %rdi,%rdi
    1719:	89 7d 98             	mov    %edi,-0x68(%rbp)
    171c:	48 31 ff             	xor    %rdi,%rdi
    171f:	48 8b 4d b0          	mov    -0x50(%rbp),%rcx
    1723:	48 31 d2             	xor    %rdx,%rdx
    1726:	48 39 d1             	cmp    %rdx,%rcx
    1729:	0f 84 23 00 00 00    	je     0x1752
    172f:	48 ff 49 20          	decq   0x20(%rcx)
    1733:	48 ff 49 28          	decq   0x28(%rcx)
    1737:	48 39 51 20          	cmp    %rdx,0x20(%rcx)
    173b:	0f 85 11 00 00 00    	jne    0x1752
    1741:	57                   	push   %rdi
    1742:	48 b8 7f 95 58 55 55 	movabs $0x55555558957f,%rax
    1749:	55 00 00 
    174c:	48 89 cf             	mov    %rcx,%rdi
    174f:	ff d0                	call   *%rax
    1751:	5f                   	pop    %rdi
    1752:	48 89 7d b0          	mov    %rdi,-0x50(%rbp)
    1756:	48 31 ff             	xor    %rdi,%rdi
    1759:	48 8b 4d b8          	mov    -0x48(%rbp),%rcx
    175d:	48 31 d2             	xor    %rdx,%rdx
    1760:	48 39 d1             	cmp    %rdx,%rcx
    1763:	0f 84 23 00 00 00    	je     0x178c
    1769:	48 ff 49 20          	decq   0x20(%rcx)
    176d:	48 ff 49 28          	decq   0x28(%rcx)
    1771:	48 39 51 20          	cmp    %rdx,0x20(%rcx)
    1775:	0f 85 11 00 00 00    	jne    0x178c
    177b:	57                   	push   %rdi
    177c:	48 b8 7f 95 58 55 55 	movabs $0x55555558957f,%rax
    1783:	55 00 00 
    1786:	48 89 cf             	mov    %rcx,%rdi
    1789:	ff d0                	call   *%rax
    178b:	5f                   	pop    %rdi
    178c:	48 89 7d b8          	mov    %rdi,-0x48(%rbp)
    1790:	48 31 ff             	xor    %rdi,%rdi
    1793:	89 7d a8             	mov    %edi,-0x58(%rbp)
    1796:	48 31 ff             	xor    %rdi,%rdi
    1799:	89 7d a0             	mov    %edi,-0x60(%rbp)
    179c:	48 31 ff             	xor    %rdi,%rdi
    179f:	48 31 c0             	xor    %rax,%rax
    17a2:	c9                   	leave  
    17a3:	c3                   	ret    
    17a4:	55                   	push   %rbp
    17a5:	48 89 e5             	mov    %rsp,%rbp
    17a8:	48 81 ec 50 00 00 00 	sub    $0x50,%rsp
    17af:	48 89 7d f8          	mov    %rdi,-0x8(%rbp)
    17b3:	48 b8 00 5d 69 55 55 	movabs $0x555555695d00,%rax
    17ba:	55 00 00 
    17bd:	48 8b 00             	mov    (%rax),%rax
    17c0:	48 89 45 f0          	mov    %rax,-0x10(%rbp)
    17c4:	48 31 c0             	xor    %rax,%rax
    17c7:	48 89 45 b8          	mov    %rax,-0x48(%rbp)
    17cb:	48 89 45 b0          	mov    %rax,-0x50(%rbp)
    17cf:	48 b8 80 5c 69 55 55 	movabs $0x555555695c80,%rax
    17d6:	55 00 00 
    17d9:	48 8b 48 00          	mov    0x0(%rax),%rcx
    17dd:	48 89 4d b8          	mov    %rcx,-0x48(%rbp)
    17e1:	48 8b 48 08          	mov    0x8(%rax),%rcx
    17e5:	48 89 4d b0          	mov    %rcx,-0x50(%rbp)
    17e9:	48 8b 7d f8          	mov    -0x8(%rbp),%rdi
    17ed:	48 be 00 00 00 00 00 	movabs $0x0,%rsi
    17f4:	00 00 00 
    17f7:	48 b8 c1 be 58 55 55 	movabs $0x55555558bec1,%rax
    17fe:	55 00 00 
    1801:	ff d0                	call   *%rax
    1803:	48 8b 38             	mov    (%rax),%rdi
    1806:	48 31 f6             	xor    %rsi,%rsi
    1809:	48 39 f7             	cmp    %rsi,%rdi
    180c:	0f 84 08 00 00 00    	je     0x181a
    1812:	48 31 ff             	xor    %rdi,%rdi
    1815:	e9 0a 00 00 00       	jmp    0x1824
    181a:	48 bf 01 00 00 00 00 	movabs $0x1,%rdi
    1821:	00 00 00 
    1824:	48 81 ff 00 00 00 00 	cmp    $0x0,%rdi
    182b:	0f 84 6c 00 00 00    	je     0x189d
    1831:	48 b8 80 5c 69 55 55 	movabs $0x555555695c80,%rax
    1838:	55 00 00 
    183b:	48 8b 4d f8          	mov    -0x8(%rbp),%rcx
    183f:	48 8b 51 10          	mov    0x10(%rcx),%rdx
    1843:	48 8b 42 00          	mov    0x0(%rdx),%rax
    1847:	48 89 c7             	mov    %rax,%rdi
    184a:	48 8b 40 68          	mov    0x68(%rax),%rax
    184e:	48 b9 70 06 00 00 00 	movabs $0x670,%rcx
    1855:	00 00 00 
    1858:	48 8b 04 c8          	mov    (%rax,%rcx,8),%rax
    185c:	ff d0                	call   *%rax
    185e:	48 89 c7             	mov    %rax,%rdi
    1861:	48 b8 80 5c 69 55 55 	movabs $0x555555695c80,%rax
    1868:	55 00 00 
    186b:	48 89 78 00          	mov    %rdi,0x0(%rax)
    186f:	48 8b 4d f8          	mov    -0x8(%rbp),%rcx
    1873:	48 8b 51 10          	mov    0x10(%rcx),%rdx
    1877:	48 8b 42 00          	mov    0x0(%rdx),%rax
    187b:	48 89 c7             	mov    %rax,%rdi
    187e:	48 8b 40 68          	mov    0x68(%rax),%rax
    1882:	48 b9 68 08 00 00 00 	movabs $0x868,%rcx
    1889:	00 00 00 
    188c:	48 8b 04 c8          	mov    (%rax,%rcx,8),%rax
    1890:	ff d0                	call   *%rax
    1892:	48 89 c7             	mov    %rax,%rdi
    1895:	48 31 ff             	xor    %rdi,%rdi
    1898:	e9 00 00 00 00       	jmp    0x189d
    189d:	48 31 ff             	xor    %rdi,%rdi
    18a0:	40 8a 7d f0          	mov    -0x10(%rbp),%dil
    18a4:	48 b8 00 5d 69 55 55 	movabs $0x555555695d00,%rax
    18ab:	55 00 00 
    18ae:	40 88 78 00          	mov    %dil,0x0(%rax)
    18b2:	48 8b 7d b8          	mov    -0x48(%rbp),%rdi
    18b6:	48 81 ff 00 00 00 00 	cmp    $0x0,%rdi
    18bd:	0f 84 08 00 00 00    	je     0x18cb
    18c3:	48 ff 47 20          	incq   0x20(%rdi)
    18c7:	48 ff 47 28          	incq   0x28(%rdi)
    18cb:	48 8b 75 b0          	mov    -0x50(%rbp),%rsi
    18cf:	48 81 fe 00 00 00 00 	cmp    $0x0,%rsi
    18d6:	0f 84 08 00 00 00    	je     0x18e4
    18dc:	48 ff 46 20          	incq   0x20(%rsi)
    18e0:	48 ff 46 28          	incq   0x28(%rsi)
    18e4:	4d 31 c0             	xor    %r8,%r8
    18e7:	4c 8b 4d b8          	mov    -0x48(%rbp),%r9
    18eb:	49 81 f9 00 00 00 00 	cmp    $0x0,%r9
    18f2:	0f 84 08 00 00 00    	je     0x1900
    18f8:	49 ff 41 20          	incq   0x20(%r9)
    18fc:	49 ff 41 28          	incq   0x28(%r9)
    1900:	4d 89 ca             	mov    %r9,%r10
    1903:	49 81 f9 00 00 00 00 	cmp    $0x0,%r9
    190a:	0f 84 08 00 00 00    	je     0x1918
    1910:	49 ff 41 20          	incq   0x20(%r9)
    1914:	49 ff 41 28          	incq   0x28(%r9)
    1918:	48 b8 80 5c 69 55 55 	movabs $0x555555695c80,%rax
    191f:	55 00 00 
    1922:	4c 89 50 00          	mov    %r10,0x0(%rax)
    1926:	4c 89 c9             	mov    %r9,%rcx
    1929:	48 ff 49 20          	decq   0x20(%rcx)
    192d:	48 ff 49 28          	decq   0x28(%rcx)
    1931:	48 8b 51 18          	mov    0x18(%rcx),%rdx
    1935:	48 81 c2 30 00 00 00 	add    $0x30,%rdx
    193c:	4c 8b 0a             	mov    (%rdx),%r9
    193f:	57                   	push   %rdi
    1940:	56                   	push   %rsi
    1941:	41 50                	push   %r8
    1943:	4c 89 cf             	mov    %r9,%rdi
    1946:	48 b8 3f bd 58 55 55 	movabs $0x55555558bd3f,%rax
    194d:	55 00 00 
    1950:	ff d0                	call   *%rax
    1952:	41 58                	pop    %r8
    1954:	5e                   	pop    %rsi
    1955:	5f                   	pop    %rdi
    1956:	49 89 c1             	mov    %rax,%r9
    1959:	49 ba 01 00 00 00 00 	movabs $0x1,%r10
    1960:	00 00 00 
    1963:	45 29 d1             	sub    %r10d,%r9d
    1966:	48 b8 80 5c 69 55 55 	movabs $0x555555695c80,%rax
    196d:	55 00 00 
    1970:	48 89 78 00          	mov    %rdi,0x0(%rax)
    1974:	48 89 70 08          	mov    %rsi,0x8(%rax)
    1978:	4c 89 40 10          	mov    %r8,0x10(%rax)
    197c:	4c 89 48 18          	mov    %r9,0x18(%rax)
    1980:	48 8b 4d f8          	mov    -0x8(%rbp),%rcx
    1984:	48 8b 51 10          	mov    0x10(%rcx),%rdx
    1988:	48 8b 42 00          	mov    0x0(%rdx),%rax
    198c:	48 89 c7             	mov    %rax,%rdi
    198f:	48 8b 40 68          	mov    0x68(%rax),%rax
    1993:	48 b9 c8 0a 00 00 00 	movabs $0xac8,%rcx
    199a:	00 00 00 
    199d:	48 8b 04 c8          	mov    (%rax,%rcx,8),%rax
    19a1:	ff d0                	call   *%rax
    19a3:	48 89 c7             	mov    %rax,%rdi
    19a6:	48 31 ff             	xor    %rdi,%rdi
    19a9:	48 31 ff             	xor    %rdi,%rdi
    19ac:	48 8b 4d b0          	mov    -0x50(%rbp),%rcx
    19b0:	48 31 d2             	xor    %rdx,%rdx
    19b3:	48 39 d1             	cmp    %rdx,%rcx
    19b6:	0f 84 23 00 00 00    	je     0x19df
    19bc:	48 ff 49 20          	decq   0x20(%rcx)
    19c0:	48 ff 49 28          	decq   0x28(%rcx)
    19c4:	48 39 51 20          	cmp    %rdx,0x20(%rcx)
    19c8:	0f 85 11 00 00 00    	jne    0x19df
    19ce:	57                   	push   %rdi
    19cf:	48 b8 7f 95 58 55 55 	movabs $0x55555558957f,%rax
    19d6:	55 00 00 
    19d9:	48 89 cf             	mov    %rcx,%rdi
    19dc:	ff d0                	call   *%rax
    19de:	5f                   	pop    %rdi
    19df:	48 89 7d b0          	mov    %rdi,-0x50(%rbp)
    19e3:	48 31 ff             	xor    %rdi,%rdi
    19e6:	48 8b 4d b8          	mov    -0x48(%rbp),%rcx
    19ea:	48 31 d2             	xor    %rdx,%rdx
    19ed:	48 39 d1             	cmp    %rdx,%rcx
    19f0:	0f 84 23 00 00 00    	je     0x1a19
    19f6:	48 ff 49 20          	decq   0x20(%rcx)
    19fa:	48 ff 49 28          	decq   0x28(%rcx)
    19fe:	48 39 51 20          	cmp    %rdx,0x20(%rcx)
    1a02:	0f 85 11 00 00 00    	jne    0x1a19
    1a08:	57                   	push   %rdi
    1a09:	48 b8 7f 95 58 55 55 	movabs $0x55555558957f,%rax
    1a10:	55 00 00 
    1a13:	48 89 cf             	mov    %rcx,%rdi
    1a16:	ff d0                	call   *%rax
    1a18:	5f                   	pop    %rdi
    1a19:	48 89 7d b8          	mov    %rdi,-0x48(%rbp)
    1a1d:	48 31 ff             	xor    %rdi,%rdi
    1a20:	48 31 c0             	xor    %rax,%rax
    1a23:	c9                   	leave  
    1a24:	c3                   	ret    
    1a25:	55                   	push   %rbp
    1a26:	48 89 e5             	mov    %rsp,%rbp
    1a29:	48 81 ec 50 00 00 00 	sub    $0x50,%rsp
    1a30:	48 89 7d f8          	mov    %rdi,-0x8(%rbp)
    1a34:	48 b8 00 5d 69 55 55 	movabs $0x555555695d00,%rax
    1a3b:	55 00 00 
    1a3e:	48 8b 00             	mov    (%rax),%rax
    1a41:	48 89 45 f0          	mov    %rax,-0x10(%rbp)
    1a45:	48 31 c0             	xor    %rax,%rax
    1a48:	48 89 45 b8          	mov    %rax,-0x48(%rbp)
    1a4c:	48 89 45 b0          	mov    %rax,-0x50(%rbp)
    1a50:	48 b8 80 5c 69 55 55 	movabs $0x555555695c80,%rax
    1a57:	55 00 00 
    1a5a:	48 8b 48 00          	mov    0x0(%rax),%rcx
    1a5e:	48 89 4d b8          	mov    %rcx,-0x48(%rbp)
    1a62:	48 8b 48 08          	mov    0x8(%rax),%rcx
    1a66:	48 89 4d b0          	mov    %rcx,-0x50(%rbp)
    1a6a:	48 8b 7d b8          	mov    -0x48(%rbp),%rdi
    1a6e:	48 81 ff 00 00 00 00 	cmp    $0x0,%rdi
    1a75:	0f 84 08 00 00 00    	je     0x1a83
    1a7b:	48 ff 47 20          	incq   0x20(%rdi)
    1a7f:	48 ff 47 28          	incq   0x28(%rdi)
    1a83:	48 8b 75 b0          	mov    -0x50(%rbp),%rsi
    1a87:	48 81 fe 00 00 00 00 	cmp    $0x0,%rsi
    1a8e:	0f 84 08 00 00 00    	je     0x1a9c
    1a94:	48 ff 46 20          	incq   0x20(%rsi)
    1a98:	48 ff 46 28          	incq   0x28(%rsi)
    1a9c:	48 89 f9             	mov    %rdi,%rcx
    1a9f:	48 ff 49 20          	decq   0x20(%rcx)
    1aa3:	48 ff 49 28          	decq   0x28(%rcx)
    1aa7:	48 8b 51 18          	mov    0x18(%rcx),%rdx
    1aab:	48 81 c2 10 00 00 00 	add    $0x10,%rdx
    1ab2:	51                   	push   %rcx
    1ab3:	52                   	push   %rdx
    1ab4:	57                   	push   %rdi
    1ab5:	56                   	push   %rsi
    1ab6:	48 89 cf             	mov    %rcx,%rdi
    1ab9:	48 8b 32             	mov    (%rdx),%rsi
    1abc:	48 b8 a2 bd 58 55 55 	movabs $0x55555558bda2,%rax
    1ac3:	55 00 00 
    1ac6:	ff d0                	call   *%rax
    1ac8:	5e                   	pop    %rsi
    1ac9:	5f                   	pop    %rdi
    1aca:	5a                   	pop    %rdx
    1acb:	59                   	pop    %rcx
    1acc:	48 89 32             	mov    %rsi,(%rdx)
    1acf:	48 89 f0             	mov    %rsi,%rax
    1ad2:	48 89 cf             	mov    %rcx,%rdi
    1ad5:	48 8b 32             	mov    (%rdx),%rsi
    1ad8:	48 ba 10 00 00 00 00 	movabs $0x10,%rdx
    1adf:	00 00 00 
    1ae2:	48 b8 15 be 58 55 55 	movabs $0x55555558be15,%rax
    1ae9:	55 00 00 
    1aec:	ff d0                	call   *%rax
    1aee:	48 8b 7d b8          	mov    -0x48(%rbp),%rdi
    1af2:	48 81 ff 00 00 00 00 	cmp    $0x0,%rdi
    1af9:	0f 84 08 00 00 00    	je     0x1b07
    1aff:	48 ff 47 20          	incq   0x20(%rdi)
    1b03:	48 ff 47 28          	incq   0x28(%rdi)
    1b07:	57                   	push   %rdi
    1b08:	48 bf 60 00 00 00 00 	movabs $0x60,%rdi
    1b0f:	00 00 00 
    1b12:	48 b8 46 92 58 55 55 	movabs $0x555555589246,%rax
    1b19:	55 00 00 
    1b1c:	ff d0                	call   *%rax
    1b1e:	5f                   	pop    %rdi
    1b1f:	48 89 c6             	mov    %rax,%rsi
    1b22:	49 89 f0             	mov    %rsi,%r8
    1b25:	48 81 fe 00 00 00 00 	cmp    $0x0,%rsi
    1b2c:	0f 84 08 00 00 00    	je     0x1b3a
    1b32:	48 ff 46 20          	incq   0x20(%rsi)
    1b36:	48 ff 46 28          	incq   0x28(%rsi)
    1b3a:	48 b8 80 5c 69 55 55 	movabs $0x555555695c80,%rax
    1b41:	55 00 00 
    1b44:	4c 89 40 00          	mov    %r8,0x0(%rax)
    1b48:	49 b8 0a 00 00 00 00 	movabs $0xa,%r8
    1b4f:	00 00 00 
    1b52:	48 b8 00 5d 69 55 55 	movabs $0x555555695d00,%rax
    1b59:	55 00 00 
    1b5c:	44 88 40 00          	mov    %r8b,0x0(%rax)
    1b60:	48 8b 4d f8          	mov    -0x8(%rbp),%rcx
    1b64:	48 8b 51 10          	mov    0x10(%rcx),%rdx
    1b68:	48 8b 42 00          	mov    0x0(%rdx),%rax
    1b6c:	57                   	push   %rdi
    1b6d:	56                   	push   %rsi
    1b6e:	48 89 c7             	mov    %rax,%rdi
    1b71:	48 8b 40 68          	mov    0x68(%rax),%rax
    1b75:	48 b9 7c 20 00 00 00 	movabs $0x207c,%rcx
    1b7c:	00 00 00 
    1b7f:	48 8b 04 c8          	mov    (%rax,%rcx,8),%rax
    1b83:	ff d0                	call   *%rax
    1b85:	5e                   	pop    %rsi
    1b86:	5f                   	pop    %rdi
    1b87:	49 89 c0             	mov    %rax,%r8
    1b8a:	4d 31 c0             	xor    %r8,%r8
    1b8d:	48 89 f9             	mov    %rdi,%rcx
    1b90:	48 ff 49 20          	decq   0x20(%rcx)
    1b94:	48 ff 49 28          	decq   0x28(%rcx)
    1b98:	48 8b 51 18          	mov    0x18(%rcx),%rdx
    1b9c:	48 81 c2 18 00 00 00 	add    $0x18,%rdx
    1ba3:	51                   	push   %rcx
    1ba4:	52                   	push   %rdx
    1ba5:	57                   	push   %rdi
    1ba6:	56                   	push   %rsi
    1ba7:	48 89 cf             	mov    %rcx,%rdi
    1baa:	48 8b 32             	mov    (%rdx),%rsi
    1bad:	48 b8 a2 bd 58 55 55 	movabs $0x55555558bda2,%rax
    1bb4:	55 00 00 
    1bb7:	ff d0                	call   *%rax
    1bb9:	5e                   	pop    %rsi
    1bba:	5f                   	pop    %rdi
    1bbb:	5a                   	pop    %rdx
    1bbc:	59                   	pop    %rcx
    1bbd:	48 89 32             	mov    %rsi,(%rdx)
    1bc0:	48 89 f0             	mov    %rsi,%rax
    1bc3:	48 89 cf             	mov    %rcx,%rdi
    1bc6:	48 8b 32             	mov    (%rdx),%rsi
    1bc9:	48 ba 18 00 00 00 00 	movabs $0x18,%rdx
    1bd0:	00 00 00 
    1bd3:	48 b8 15 be 58 55 55 	movabs $0x55555558be15,%rax
    1bda:	55 00 00 
    1bdd:	ff d0                	call   *%rax
    1bdf:	48 8b 7d b8          	mov    -0x48(%rbp),%rdi
    1be3:	48 81 ff 00 00 00 00 	cmp    $0x0,%rdi
    1bea:	0f 84 08 00 00 00    	je     0x1bf8
    1bf0:	48 ff 47 20          	incq   0x20(%rdi)
    1bf4:	48 ff 47 28          	incq   0x28(%rdi)
    1bf8:	57                   	push   %rdi
    1bf9:	48 bf 60 00 00 00 00 	movabs $0x60,%rdi
    1c00:	00 00 00 
    1c03:	48 b8 46 92 58 55 55 	movabs $0x555555589246,%rax
    1c0a:	55 00 00 
    1c0d:	ff d0                	call   *%rax
    1c0f:	5f                   	pop    %rdi
    1c10:	48 89 c6             	mov    %rax,%rsi
    1c13:	49 89 f0             	mov    %rsi,%r8
    1c16:	48 81 fe 00 00 00 00 	cmp    $0x0,%rsi
    1c1d:	0f 84 08 00 00 00    	je     0x1c2b
    1c23:	48 ff 46 20          	incq   0x20(%rsi)
    1c27:	48 ff 46 28          	incq   0x28(%rsi)
    1c2b:	48 b8 80 5c 69 55 55 	movabs $0x555555695c80,%rax
    1c32:	55 00 00 
    1c35:	4c 89 40 00          	mov    %r8,0x0(%rax)
    1c39:	49 b8 05 00 00 00 00 	movabs $0x5,%r8
    1c40:	00 00 00 
    1c43:	48 b8 00 5d 69 55 55 	movabs $0x555555695d00,%rax
    1c4a:	55 00 00 
    1c4d:	44 88 40 00          	mov    %r8b,0x0(%rax)
    1c51:	48 8b 4d f8          	mov    -0x8(%rbp),%rcx
    1c55:	48 8b 51 10          	mov    0x10(%rcx),%rdx
    1c59:	48 8b 42 00          	mov    0x0(%rdx),%rax
    1c5d:	57                   	push   %rdi
    1c5e:	56                   	push   %rsi
    1c5f:	48 89 c7             	mov    %rax,%rdi
    1c62:	48 8b 40 68          	mov    0x68(%rax),%rax
    1c66:	48 b9 7c 20 00 00 00 	movabs $0x207c,%rcx
    1c6d:	00 00 00 
    1c70:	48 8b 04 c8          	mov    (%rax,%rcx,8),%rax
    1c74:	ff d0                	call   *%rax
    1c76:	5e                   	pop    %rsi
    1c77:	5f                   	pop    %rdi
    1c78:	49 89 c0             	mov    %rax,%r8
    1c7b:	4d 31 c0             	xor    %r8,%r8
    1c7e:	48 89 f9             	mov    %rdi,%rcx
    1c81:	48 ff 49 20          	decq   0x20(%rcx)
    1c85:	48 ff 49 28          	decq   0x28(%rcx)
    1c89:	48 8b 51 18          	mov    0x18(%rcx),%rdx
    1c8d:	48 81 c2 20 00 00 00 	add    $0x20,%rdx
    1c94:	51                   	push   %rcx
    1c95:	52                   	push   %rdx
    1c96:	57                   	push   %rdi
    1c97:	56                   	push   %rsi
    1c98:	48 89 cf             	mov    %rcx,%rdi
    1c9b:	48 8b 32             	mov    (%rdx),%rsi
    1c9e:	48 b8 a2 bd 58 55 55 	movabs $0x55555558bda2,%rax
    1ca5:	55 00 00 
    1ca8:	ff d0                	call   *%rax
    1caa:	5e                   	pop    %rsi
    1cab:	5f                   	pop    %rdi
    1cac:	5a                   	pop    %rdx
    1cad:	59                   	pop    %rcx
    1cae:	48 89 32             	mov    %rsi,(%rdx)
    1cb1:	48 89 f0             	mov    %rsi,%rax
    1cb4:	48 89 cf             	mov    %rcx,%rdi
    1cb7:	48 8b 32             	mov    (%rdx),%rsi
    1cba:	48 ba 20 00 00 00 00 	movabs $0x20,%rdx
    1cc1:	00 00 00 
    1cc4:	48 b8 15 be 58 55 55 	movabs $0x55555558be15,%rax
    1ccb:	55 00 00 
    1cce:	ff d0                	call   *%rax
    1cd0:	48 31 ff             	xor    %rdi,%rdi
    1cd3:	48 8b 4d b8          	mov    -0x48(%rbp),%rcx
    1cd7:	48 31 d2             	xor    %rdx,%rdx
    1cda:	48 39 d1             	cmp    %rdx,%rcx
    1cdd:	0f 84 23 00 00 00    	je     0x1d06
    1ce3:	48 ff 49 20          	decq   0x20(%rcx)
    1ce7:	48 ff 49 28          	decq   0x28(%rcx)
    1ceb:	48 39 51 20          	cmp    %rdx,0x20(%rcx)
    1cef:	0f 85 11 00 00 00    	jne    0x1d06
    1cf5:	57                   	push   %rdi
    1cf6:	48 b8 7f 95 58 55 55 	movabs $0x55555558957f,%rax
    1cfd:	55 00 00 
    1d00:	48 89 cf             	mov    %rcx,%rdi
    1d03:	ff d0                	call   *%rax
    1d05:	5f                   	pop    %rdi
    1d06:	48 89 7d b8          	mov    %rdi,-0x48(%rbp)
    1d0a:	48 31 ff             	xor    %rdi,%rdi
    1d0d:	48 8b 4d b0          	mov    -0x50(%rbp),%rcx
    1d11:	48 31 d2             	xor    %rdx,%rdx
    1d14:	48 39 d1             	cmp    %rdx,%rcx
    1d17:	0f 84 23 00 00 00    	je     0x1d40
    1d1d:	48 ff 49 20          	decq   0x20(%rcx)
    1d21:	48 ff 49 28          	decq   0x28(%rcx)
    1d25:	48 39 51 20          	cmp    %rdx,0x20(%rcx)
    1d29:	0f 85 11 00 00 00    	jne    0x1d40
    1d2f:	57                   	push   %rdi
    1d30:	48 b8 7f 95 58 55 55 	movabs $0x55555558957f,%rax
    1d37:	55 00 00 
    1d3a:	48 89 cf             	mov    %rcx,%rdi
    1d3d:	ff d0                	call   *%rax
    1d3f:	5f                   	pop    %rdi
    1d40:	48 89 7d b0          	mov    %rdi,-0x50(%rbp)
    1d44:	48 31 ff             	xor    %rdi,%rdi
    1d47:	48 31 c0             	xor    %rax,%rax
    1d4a:	c9                   	leave  
    1d4b:	c3                   	ret    
    1d4c:	55                   	push   %rbp
    1d4d:	48 89 e5             	mov    %rsp,%rbp
    1d50:	48 81 ec 50 00 00 00 	sub    $0x50,%rsp
    1d57:	48 89 7d f8          	mov    %rdi,-0x8(%rbp)
    1d5b:	48 b8 00 5d 69 55 55 	movabs $0x555555695d00,%rax
    1d62:	55 00 00 
    1d65:	48 8b 00             	mov    (%rax),%rax
    1d68:	48 89 45 f0          	mov    %rax,-0x10(%rbp)
    1d6c:	48 31 c0             	xor    %rax,%rax
    1d6f:	48 89 45 b8          	mov    %rax,-0x48(%rbp)
    1d73:	48 89 45 b0          	mov    %rax,-0x50(%rbp)
    1d77:	48 b8 80 5c 69 55 55 	movabs $0x555555695c80,%rax
    1d7e:	55 00 00 
    1d81:	48 8b 48 00          	mov    0x0(%rax),%rcx
    1d85:	48 89 4d b8          	mov    %rcx,-0x48(%rbp)
    1d89:	48 8b 48 08          	mov    0x8(%rax),%rcx
    1d8d:	48 89 4d b0          	mov    %rcx,-0x50(%rbp)
    1d91:	48 8b 7d b8          	mov    -0x48(%rbp),%rdi
    1d95:	48 81 ff 00 00 00 00 	cmp    $0x0,%rdi
    1d9c:	0f 84 08 00 00 00    	je     0x1daa
    1da2:	48 ff 47 20          	incq   0x20(%rdi)
    1da6:	48 ff 47 28          	incq   0x28(%rdi)
    1daa:	48 89 f9             	mov    %rdi,%rcx
    1dad:	48 ff 49 20          	decq   0x20(%rcx)
    1db1:	48 ff 49 28          	decq   0x28(%rcx)
    1db5:	48 8b 51 18          	mov    0x18(%rcx),%rdx
    1db9:	48 81 c2 18 00 00 00 	add    $0x18,%rdx
    1dc0:	48 8b 3a             	mov    (%rdx),%rdi
    1dc3:	48 81 ff 00 00 00 00 	cmp    $0x0,%rdi
    1dca:	0f 84 08 00 00 00    	je     0x1dd8
    1dd0:	48 ff 47 20          	incq   0x20(%rdi)
    1dd4:	48 ff 47 28          	incq   0x28(%rdi)
    1dd8:	48 8b 75 b0          	mov    -0x50(%rbp),%rsi
    1ddc:	48 81 fe 00 00 00 00 	cmp    $0x0,%rsi
    1de3:	0f 84 08 00 00 00    	je     0x1df1
    1de9:	48 ff 46 20          	incq   0x20(%rsi)
    1ded:	48 ff 46 28          	incq   0x28(%rsi)
    1df1:	48 b8 80 5c 69 55 55 	movabs $0x555555695c80,%rax
    1df8:	55 00 00 
    1dfb:	48 89 78 00          	mov    %rdi,0x0(%rax)
    1dff:	48 89 70 08          	mov    %rsi,0x8(%rax)
    1e03:	48 8b 4d f8          	mov    -0x8(%rbp),%rcx
    1e07:	48 8b 51 10          	mov    0x10(%rcx),%rdx
    1e0b:	48 8b 42 00          	mov    0x0(%rdx),%rax
    1e0f:	48 89 c7             	mov    %rax,%rdi
    1e12:	48 8b 40 68          	mov    0x68(%rax),%rax
    1e16:	48 b9 6c 23 00 00 00 	movabs $0x236c,%rcx
    1e1d:	00 00 00 
    1e20:	48 8b 04 c8          	mov    (%rax,%rcx,8),%rax
    1e24:	ff d0                	call   *%rax
    1e26:	48 89 c7             	mov    %rax,%rdi
    1e29:	48 31 ff             	xor    %rdi,%rdi
    1e2c:	48 31 ff             	xor    %rdi,%rdi
    1e2f:	48 8b 4d b8          	mov    -0x48(%rbp),%rcx
    1e33:	48 31 d2             	xor    %rdx,%rdx
    1e36:	48 39 d1             	cmp    %rdx,%rcx
    1e39:	0f 84 23 00 00 00    	je     0x1e62
    1e3f:	48 ff 49 20          	decq   0x20(%rcx)
    1e43:	48 ff 49 28          	decq   0x28(%rcx)
    1e47:	48 39 51 20          	cmp    %rdx,0x20(%rcx)
    1e4b:	0f 85 11 00 00 00    	jne    0x1e62
    1e51:	57                   	push   %rdi
    1e52:	48 b8 7f 95 58 55 55 	movabs $0x55555558957f,%rax
    1e59:	55 00 00 
    1e5c:	48 89 cf             	mov    %rcx,%rdi
    1e5f:	ff d0                	call   *%rax
    1e61:	5f                   	pop    %rdi
    1e62:	48 89 7d b8          	mov    %rdi,-0x48(%rbp)
    1e66:	48 31 ff             	xor    %rdi,%rdi
    1e69:	48 8b 4d b0          	mov    -0x50(%rbp),%rcx
    1e6d:	48 31 d2             	xor    %rdx,%rdx
    1e70:	48 39 d1             	cmp    %rdx,%rcx
    1e73:	0f 84 23 00 00 00    	je     0x1e9c
    1e79:	48 ff 49 20          	decq   0x20(%rcx)
    1e7d:	48 ff 49 28          	decq   0x28(%rcx)
    1e81:	48 39 51 20          	cmp    %rdx,0x20(%rcx)
    1e85:	0f 85 11 00 00 00    	jne    0x1e9c
    1e8b:	57                   	push   %rdi
    1e8c:	48 b8 7f 95 58 55 55 	movabs $0x55555558957f,%rax
    1e93:	55 00 00 
    1e96:	48 89 cf             	mov    %rcx,%rdi
    1e99:	ff d0                	call   *%rax
    1e9b:	5f                   	pop    %rdi
    1e9c:	48 89 7d b0          	mov    %rdi,-0x50(%rbp)
    1ea0:	48 31 ff             	xor    %rdi,%rdi
    1ea3:	48 31 c0             	xor    %rax,%rax
    1ea6:	c9                   	leave  
    1ea7:	c3                   	ret    
    1ea8:	55                   	push   %rbp
    1ea9:	48 89 e5             	mov    %rsp,%rbp
    1eac:	48 81 ec 48 00 00 00 	sub    $0x48,%rsp
    1eb3:	48 89 7d f8          	mov    %rdi,-0x8(%rbp)
    1eb7:	48 b8 00 5d 69 55 55 	movabs $0x555555695d00,%rax
    1ebe:	55 00 00 
    1ec1:	48 8b 00             	mov    (%rax),%rax
    1ec4:	48 89 45 f0          	mov    %rax,-0x10(%rbp)
    1ec8:	48 31 c0             	xor    %rax,%rax
    1ecb:	48 89 45 b8          	mov    %rax,-0x48(%rbp)
    1ecf:	48 b8 80 5c 69 55 55 	movabs $0x555555695c80,%rax
    1ed6:	55 00 00 
    1ed9:	48 8b 48 00          	mov    0x0(%rax),%rcx
    1edd:	48 89 4d b8          	mov    %rcx,-0x48(%rbp)
    1ee1:	48 31 ff             	xor    %rdi,%rdi
    1ee4:	48 8b 4d b8          	mov    -0x48(%rbp),%rcx
    1ee8:	48 31 d2             	xor    %rdx,%rdx
    1eeb:	48 39 d1             	cmp    %rdx,%rcx
    1eee:	0f 84 23 00 00 00    	je     0x1f17
    1ef4:	48 ff 49 20          	decq   0x20(%rcx)
    1ef8:	48 ff 49 28          	decq   0x28(%rcx)
    1efc:	48 39 51 20          	cmp    %rdx,0x20(%rcx)
    1f00:	0f 85 11 00 00 00    	jne    0x1f17
    1f06:	57                   	push   %rdi
    1f07:	48 b8 7f 95 58 55 55 	movabs $0x55555558957f,%rax
    1f0e:	55 00 00 
    1f11:	48 89 cf             	mov    %rcx,%rdi
    1f14:	ff d0                	call   *%rax
    1f16:	5f                   	pop    %rdi
    1f17:	48 89 7d b8          	mov    %rdi,-0x48(%rbp)
    1f1b:	48 31 ff             	xor    %rdi,%rdi
    1f1e:	48 31 c0             	xor    %rax,%rax
    1f21:	c9                   	leave  
    1f22:	c3                   	ret    
    1f23:	55                   	push   %rbp
    1f24:	48 89 e5             	mov    %rsp,%rbp
    1f27:	48 81 ec 60 00 00 00 	sub    $0x60,%rsp
    1f2e:	48 89 7d f8          	mov    %rdi,-0x8(%rbp)
    1f32:	48 b8 00 5d 69 55 55 	movabs $0x555555695d00,%rax
    1f39:	55 00 00 
    1f3c:	48 8b 00             	mov    (%rax),%rax
    1f3f:	48 89 45 f0          	mov    %rax,-0x10(%rbp)
    1f43:	48 31 c0             	xor    %rax,%rax
    1f46:	48 89 45 b8          	mov    %rax,-0x48(%rbp)
    1f4a:	48 89 45 b0          	mov    %rax,-0x50(%rbp)
    1f4e:	48 89 45 a8          	mov    %rax,-0x58(%rbp)
    1f52:	48 89 45 a0          	mov    %rax,-0x60(%rbp)
    1f56:	48 b8 80 5c 69 55 55 	movabs $0x555555695c80,%rax
    1f5d:	55 00 00 
    1f60:	48 8b 48 00          	mov    0x0(%rax),%rcx
    1f64:	48 89 4d b8          	mov    %rcx,-0x48(%rbp)
    1f68:	48 bf 60 00 00 00 00 	movabs $0x60,%rdi
    1f6f:	00 00 00 
    1f72:	48 b8 46 92 58 55 55 	movabs $0x555555589246,%rax
    1f79:	55 00 00 
    1f7c:	ff d0                	call   *%rax
    1f7e:	48 89 c7             	mov    %rax,%rdi
    1f81:	48 89 fe             	mov    %rdi,%rsi
    1f84:	48 81 ff 00 00 00 00 	cmp    $0x0,%rdi
    1f8b:	0f 84 08 00 00 00    	je     0x1f99
    1f91:	48 ff 47 20          	incq   0x20(%rdi)
    1f95:	48 ff 47 28          	incq   0x28(%rdi)
    1f99:	48 b8 80 5c 69 55 55 	movabs $0x555555695c80,%rax
    1fa0:	55 00 00 
    1fa3:	48 89 70 00          	mov    %rsi,0x0(%rax)
    1fa7:	48 8b 4d f8          	mov    -0x8(%rbp),%rcx
    1fab:	48 8b 51 10          	mov    0x10(%rcx),%rdx
    1faf:	48 8b 42 00          	mov    0x0(%rdx),%rax
    1fb3:	57                   	push   %rdi
    1fb4:	48 89 c7             	mov    %rax,%rdi
    1fb7:	48 8b 40 68          	mov    0x68(%rax),%rax
    1fbb:	48 b9 e0 30 00 00 00 	movabs $0x30e0,%rcx
    1fc2:	00 00 00 
    1fc5:	48 8b 04 c8          	mov    (%rax,%rcx,8),%rax
    1fc9:	ff d0                	call   *%rax
    1fcb:	5f                   	pop    %rdi
    1fcc:	48 89 c6             	mov    %rax,%rsi
    1fcf:	48 31 f6             	xor    %rsi,%rsi
    1fd2:	48 8b 4d b0          	mov    -0x50(%rbp),%rcx
    1fd6:	48 31 d2             	xor    %rdx,%rdx
    1fd9:	48 39 d1             	cmp    %rdx,%rcx
    1fdc:	0f 84 23 00 00 00    	je     0x2005
    1fe2:	48 ff 49 20          	decq   0x20(%rcx)
    1fe6:	48 ff 49 28          	decq   0x28(%rcx)
    1fea:	48 39 51 20          	cmp    %rdx,0x20(%rcx)
    1fee:	0f 85 11 00 00 00    	jne    0x2005
    1ff4:	57                   	push   %rdi
    1ff5:	48 b8 7f 95 58 55 55 	movabs $0x55555558957f,%rax
    1ffc:	55 00 00 
    1fff:	48 89 cf             	mov    %rcx,%rdi
    2002:	ff d0                	call   *%rax
    2004:	5f                   	pop    %rdi
    2005:	48 89 7d b0          	mov    %rdi,-0x50(%rbp)
    2009:	48 31 ff             	xor    %rdi,%rdi
    200c:	89 7d a8             	mov    %edi,-0x58(%rbp)
    200f:	48 31 ff             	xor    %rdi,%rdi
    2012:	89 7d a0             	mov    %edi,-0x60(%rbp)
    2015:	48 8b 7d a0          	mov    -0x60(%rbp),%rdi
    2019:	48 8b 75 b8          	mov    -0x48(%rbp),%rsi
    201d:	48 81 fe 00 00 00 00 	cmp    $0x0,%rsi
    2024:	0f 84 08 00 00 00    	je     0x2032
    202a:	48 ff 46 20          	incq   0x20(%rsi)
    202e:	48 ff 46 28          	incq   0x28(%rsi)
    2032:	48 89 f1             	mov    %rsi,%rcx
    2035:	48 ff 49 20          	decq   0x20(%rcx)
    2039:	48 ff 49 28          	decq   0x28(%rcx)
    203d:	48 8b 51 18          	mov    0x18(%rcx),%rdx
    2041:	48 81 c2 10 00 00 00 	add    $0x10,%rdx
    2048:	48 8b 32             	mov    (%rdx),%rsi
    204b:	48 81 fe 00 00 00 00 	cmp    $0x0,%rsi
    2052:	0f 84 08 00 00 00    	je     0x2060
    2058:	48 ff 46 20          	incq   0x20(%rsi)
    205c:	48 ff 46 28          	incq   0x28(%rsi)
    2060:	49 89 f0             	mov    %rsi,%r8
    2063:	48 81 fe 00 00 00 00 	cmp    $0x0,%rsi
    206a:	0f 84 08 00 00 00    	je     0x2078
    2070:	48 ff 46 20          	incq   0x20(%rsi)
    2074:	48 ff 46 28          	incq   0x28(%rsi)
    2078:	48 b8 80 5c 69 55 55 	movabs $0x555555695c80,%rax
    207f:	55 00 00 
    2082:	4c 89 40 00          	mov    %r8,0x0(%rax)
    2086:	48 89 f1             	mov    %rsi,%rcx
    2089:	48 ff 49 20          	decq   0x20(%rcx)
    208d:	48 ff 49 28          	decq   0x28(%rcx)
    2091:	48 8b 51 18          	mov    0x18(%rcx),%rdx
    2095:	48 81 c2 30 00 00 00 	add    $0x30,%rdx
    209c:	48 8b 32             	mov    (%rdx),%rsi
    209f:	57                   	push   %rdi
    20a0:	48 89 f7             	mov    %rsi,%rdi
    20a3:	48 b8 3f bd 58 55 55 	movabs $0x55555558bd3f,%rax
    20aa:	55 00 00 
    20ad:	ff d0                	call   *%rax
    20af:	5f                   	pop    %rdi
    20b0:	48 89 c6             	mov    %rax,%rsi
    20b3:	39 f7                	cmp    %esi,%edi
    20b5:	0f 82 08 00 00 00    	jb     0x20c3
    20bb:	48 31 ff             	xor    %rdi,%rdi
    20be:	e9 0a 00 00 00       	jmp    0x20cd
    20c3:	48 bf 01 00 00 00 00 	movabs $0x1,%rdi
    20ca:	00 00 00 
    20cd:	48 81 ff 00 00 00 00 	cmp    $0x0,%rdi
    20d4:	0f 84 b9 04 00 00    	je     0x2593
    20da:	48 8b 7d b8          	mov    -0x48(%rbp),%rdi
    20de:	48 81 ff 00 00 00 00 	cmp    $0x0,%rdi
    20e5:	0f 84 08 00 00 00    	je     0x20f3
    20eb:	48 ff 47 20          	incq   0x20(%rdi)
    20ef:	48 ff 47 28          	incq   0x28(%rdi)
    20f3:	48 89 f9             	mov    %rdi,%rcx
    20f6:	48 ff 49 20          	decq   0x20(%rcx)
    20fa:	48 ff 49 28          	decq   0x28(%rcx)
    20fe:	48 8b 51 18          	mov    0x18(%rcx),%rdx
    2102:	48 81 c2 10 00 00 00 	add    $0x10,%rdx
    2109:	48 8b 3a             	mov    (%rdx),%rdi
    210c:	48 81 ff 00 00 00 00 	cmp    $0x0,%rdi
    2113:	0f 84 08 00 00 00    	je     0x2121
    2119:	48 ff 47 20          	incq   0x20(%rdi)
    211d:	48 ff 47 28          	incq   0x28(%rdi)
    2121:	48 89 fe             	mov    %rdi,%rsi
    2124:	48 81 ff 00 00 00 00 	cmp    $0x0,%rdi
    212b:	0f 84 08 00 00 00    	je     0x2139
    2131:	48 ff 47 20          	incq   0x20(%rdi)
    2135:	48 ff 47 28          	incq   0x28(%rdi)
    2139:	4c 8b 45 a0          	mov    -0x60(%rbp),%r8
    213d:	48 b8 80 5c 69 55 55 	movabs $0x555555695c80,%rax
    2144:	55 00 00 
    2147:	48 89 70 00          	mov    %rsi,0x0(%rax)
    214b:	4c 89 40 08          	mov    %r8,0x8(%rax)
    214f:	48 89 f9             	mov    %rdi,%rcx
    2152:	48 ff 49 20          	decq   0x20(%rcx)
    2156:	48 ff 49 28          	decq   0x28(%rcx)
    215a:	48 8b 51 18          	mov    0x18(%rcx),%rdx
    215e:	48 81 c2 18 00 00 00 	add    $0x18,%rdx
    2165:	48 8b 3a             	mov    (%rdx),%rdi
    2168:	48 89 ff             	mov    %rdi,%rdi
    216b:	48 b8 3f bd 58 55 55 	movabs $0x55555558bd3f,%rax
    2172:	55 00 00 
    2175:	ff d0                	call   *%rax
    2177:	48 89 c7             	mov    %rax,%rdi
    217a:	48 be 25 00 00 00 00 	movabs $0x25,%rsi
    2181:	00 00 00 
    2184:	40 38 f7             	cmp    %sil,%dil
    2187:	0f 85 08 00 00 00    	jne    0x2195
    218d:	48 31 ff             	xor    %rdi,%rdi
    2190:	e9 0a 00 00 00       	jmp    0x219f
    2195:	48 bf 01 00 00 00 00 	movabs $0x1,%rdi
    219c:	00 00 00 
    219f:	48 81 ff 00 00 00 00 	cmp    $0x0,%rdi
    21a6:	0f 84 fb 00 00 00    	je     0x22a7
    21ac:	48 8b 7d b0          	mov    -0x50(%rbp),%rdi
    21b0:	48 81 ff 00 00 00 00 	cmp    $0x0,%rdi
    21b7:	0f 84 08 00 00 00    	je     0x21c5
    21bd:	48 ff 47 20          	incq   0x20(%rdi)
    21c1:	48 ff 47 28          	incq   0x28(%rdi)
    21c5:	48 8b 75 b8          	mov    -0x48(%rbp),%rsi
    21c9:	48 81 fe 00 00 00 00 	cmp    $0x0,%rsi
    21d0:	0f 84 08 00 00 00    	je     0x21de
    21d6:	48 ff 46 20          	incq   0x20(%rsi)
    21da:	48 ff 46 28          	incq   0x28(%rsi)
    21de:	48 89 f1             	mov    %rsi,%rcx
    21e1:	48 ff 49 20          	decq   0x20(%rcx)
    21e5:	48 ff 49 28          	decq   0x28(%rcx)
    21e9:	48 8b 51 18          	mov    0x18(%rcx),%rdx
    21ed:	48 81 c2 10 00 00 00 	add    $0x10,%rdx
    21f4:	48 8b 32             	mov    (%rdx),%rsi
    21f7:	48 81 fe 00 00 00 00 	cmp    $0x0,%rsi
    21fe:	0f 84 08 00 00 00    	je     0x220c
    2204:	48 ff 46 20          	incq   0x20(%rsi)
    2208:	48 ff 46 28          	incq   0x28(%rsi)
    220c:	49 89 f0             	mov    %rsi,%r8
    220f:	48 81 fe 00 00 00 00 	cmp    $0x0,%rsi
    2216:	0f 84 08 00 00 00    	je     0x2224
    221c:	48 ff 46 20          	incq   0x20(%rsi)
    2220:	48 ff 46 28          	incq   0x28(%rsi)
    2224:	4c 8b 4d a0          	mov    -0x60(%rbp),%r9
    2228:	48 b8 80 5c 69 55 55 	movabs $0x555555695c80,%rax
    222f:	55 00 00 
    2232:	4c 89 40 00          	mov    %r8,0x0(%rax)
    2236:	4c 89 48 08          	mov    %r9,0x8(%rax)
    223a:	48 89 f1             	mov    %rsi,%rcx
    223d:	48 ff 49 20          	decq   0x20(%rcx)
    2241:	48 ff 49 28          	decq   0x28(%rcx)
    2245:	48 8b 51 18          	mov    0x18(%rcx),%rdx
    2249:	48 81 c2 18 00 00 00 	add    $0x18,%rdx
    2250:	48 8b 32             	mov    (%rdx),%rsi
    2253:	57                   	push   %rdi
    2254:	48 89 f7             	mov    %rsi,%rdi
    2257:	48 b8 3f bd 58 55 55 	movabs $0x55555558bd3f,%rax
    225e:	55 00 00 
    2261:	ff d0                	call   *%rax
    2263:	5f                   	pop    %rdi
    2264:	48 89 c6             	mov    %rax,%rsi
    2267:	48 b8 80 5c 69 55 55 	movabs $0x555555695c80,%rax
    226e:	55 00 00 
    2271:	48 89 78 00          	mov    %rdi,0x0(%rax)
    2275:	48 89 70 08          	mov    %rsi,0x8(%rax)
    2279:	48 8b 4d f8          	mov    -0x8(%rbp),%rcx
    227d:	48 8b 51 10          	mov    0x10(%rcx),%rdx
    2281:	48 8b 42 00          	mov    0x0(%rdx),%rax
    2285:	48 89 c7             	mov    %rax,%rdi
    2288:	48 8b 40 68          	mov    0x68(%rax),%rax
    228c:	48 b9 6c 23 00 00 00 	movabs $0x236c,%rcx
    2293:	00 00 00 
    2296:	48 8b 04 c8          	mov    (%rax,%rcx,8),%rax
    229a:	ff d0                	call   *%rax
    229c:	48 89 c7             	mov    %rax,%rdi
    229f:	48 31 ff             	xor    %rdi,%rdi
    22a2:	e9 de 02 00 00       	jmp    0x2585
    22a7:	48 8b 7d b8          	mov    -0x48(%rbp),%rdi
    22ab:	48 81 ff 00 00 00 00 	cmp    $0x0,%rdi
    22b2:	0f 84 08 00 00 00    	je     0x22c0
    22b8:	48 ff 47 20          	incq   0x20(%rdi)
    22bc:	48 ff 47 28          	incq   0x28(%rdi)
    22c0:	48 89 f9             	mov    %rdi,%rcx
    22c3:	48 ff 49 20          	decq   0x20(%rcx)
    22c7:	48 ff 49 28          	decq   0x28(%rcx)
    22cb:	48 8b 51 18          	mov    0x18(%rcx),%rdx
    22cf:	48 81 c2 10 00 00 00 	add    $0x10,%rdx
    22d6:	48 8b 3a             	mov    (%rdx),%rdi
    22d9:	48 81 ff 00 00 00 00 	cmp    $0x0,%rdi
    22e0:	0f 84 08 00 00 00    	je     0x22ee
    22e6:	48 ff 47 20          	incq   0x20(%rdi)
    22ea:	48 ff 47 28          	incq   0x28(%rdi)
    22ee:	48 89 fe             	mov    %rdi,%rsi
    22f1:	48 81 ff 00 00 00 00 	cmp    $0x0,%rdi
    22f8:	0f 84 08 00 00 00    	je     0x2306
    22fe:	48 ff 47 20          	incq   0x20(%rdi)
    2302:	48 ff 47 28          	incq   0x28(%rdi)
    2306:	4c 8b 45 a0          	mov    -0x60(%rbp),%r8
    230a:	49 b9 01 00 00 00 00 	movabs $0x1,%r9
    2311:	00 00 00 
    2314:	45 01 c8             	add    %r9d,%r8d
    2317:	48 b8 80 5c 69 55 55 	movabs $0x555555695c80,%rax
    231e:	55 00 00 
    2321:	48 89 70 00          	mov    %rsi,0x0(%rax)
    2325:	4c 89 40 08          	mov    %r8,0x8(%rax)
    2329:	48 89 f9             	mov    %rdi,%rcx
    232c:	48 ff 49 20          	decq   0x20(%rcx)
    2330:	48 ff 49 28          	decq   0x28(%rcx)
    2334:	48 8b 51 18          	mov    0x18(%rcx),%rdx
    2338:	48 81 c2 18 00 00 00 	add    $0x18,%rdx
    233f:	48 8b 3a             	mov    (%rdx),%rdi
    2342:	48 89 ff             	mov    %rdi,%rdi
    2345:	48 b8 3f bd 58 55 55 	movabs $0x55555558bd3f,%rax
    234c:	55 00 00 
    234f:	ff d0                	call   *%rax
    2351:	48 89 c7             	mov    %rax,%rdi
    2354:	48 be 25 00 00 00 00 	movabs $0x25,%rsi
    235b:	00 00 00 
    235e:	40 38 f7             	cmp    %sil,%dil
    2361:	0f 84 08 00 00 00    	je     0x236f
    2367:	48 31 ff             	xor    %rdi,%rdi
    236a:	e9 0a 00 00 00       	jmp    0x2379
    236f:	48 bf 01 00 00 00 00 	movabs $0x1,%rdi
    2376:	00 00 00 
    2379:	48 81 ff 00 00 00 00 	cmp    $0x0,%rdi
    2380:	0f 84 63 00 00 00    	je     0x23e9
    2386:	48 8b 7d b0          	mov    -0x50(%rbp),%rdi
    238a:	48 81 ff 00 00 00 00 	cmp    $0x0,%rdi
    2391:	0f 84 08 00 00 00    	je     0x239f
    2397:	48 ff 47 20          	incq   0x20(%rdi)
    239b:	48 ff 47 28          	incq   0x28(%rdi)
    239f:	48 be 25 00 00 00 00 	movabs $0x25,%rsi
    23a6:	00 00 00 
    23a9:	48 b8 80 5c 69 55 55 	movabs $0x555555695c80,%rax
    23b0:	55 00 00 
    23b3:	48 89 78 00          	mov    %rdi,0x0(%rax)
    23b7:	48 89 70 08          	mov    %rsi,0x8(%rax)
    23bb:	48 8b 4d f8          	mov    -0x8(%rbp),%rcx
    23bf:	48 8b 51 10          	mov    0x10(%rcx),%rdx
    23c3:	48 8b 42 00          	mov    0x0(%rdx),%rax
    23c7:	48 89 c7             	mov    %rax,%rdi
    23ca:	48 8b 40 68          	mov    0x68(%rax),%rax
    23ce:	48 b9 6c 23 00 00 00 	movabs $0x236c,%rcx
    23d5:	00 00 00 
    23d8:	48 8b 04 c8          	mov    (%rax,%rcx,8),%rax
    23dc:	ff d0                	call   *%rax
    23de:	48 89 c7             	mov    %rax,%rdi
    23e1:	48 31 ff             	xor    %rdi,%rdi
    23e4:	e9 9c 01 00 00       	jmp    0x2585
    23e9:	48 8b 7d b8          	mov    -0x48(%rbp),%rdi
    23ed:	48 81 ff 00 00 00 00 	cmp    $0x0,%rdi
    23f4:	0f 84 08 00 00 00    	je     0x2402
    23fa:	48 ff 47 20          	incq   0x20(%rdi)
    23fe:	48 ff 47 28          	incq   0x28(%rdi)
    2402:	48 89 f9             	mov    %rdi,%rcx
    2405:	48 ff 49 20          	decq   0x20(%rcx)
    2409:	48 ff 49 28          	decq   0x28(%rcx)
    240d:	48 8b 51 18          	mov    0x18(%rcx),%rdx
    2411:	48 81 c2 20 00 00 00 	add    $0x20,%rdx
    2418:	48 8b 3a             	mov    (%rdx),%rdi
    241b:	48 81 ff 00 00 00 00 	cmp    $0x0,%rdi
    2422:	0f 84 08 00 00 00    	je     0x2430
    2428:	48 ff 47 20          	incq   0x20(%rdi)
    242c:	48 ff 47 28          	incq   0x28(%rdi)
    2430:	48 89 fe             	mov    %rdi,%rsi
    2433:	48 81 ff 00 00 00 00 	cmp    $0x0,%rdi
    243a:	0f 84 08 00 00 00    	je     0x2448
    2440:	48 ff 47 20          	incq   0x20(%rdi)
    2444:	48 ff 47 28          	incq   0x28(%rdi)
    2448:	4c 8b 45 a8          	mov    -0x58(%rbp),%r8
    244c:	48 b8 80 5c 69 55 55 	movabs $0x555555695c80,%rax
    2453:	55 00 00 
    2456:	48 89 70 00          	mov    %rsi,0x0(%rax)
    245a:	4c 89 40 08          	mov    %r8,0x8(%rax)
    245e:	48 89 f9             	mov    %rdi,%rcx
    2461:	48 ff 49 20          	decq   0x20(%rcx)
    2465:	48 ff 49 28          	decq   0x28(%rcx)
    2469:	48 8b 51 18          	mov    0x18(%rcx),%rdx
    246d:	48 81 c2 18 00 00 00 	add    $0x18,%rdx
    2474:	48 8b 3a             	mov    (%rdx),%rdi
    2477:	48 89 ff             	mov    %rdi,%rdi
    247a:	48 b8 3f bd 58 55 55 	movabs $0x55555558bd3f,%rax
    2481:	55 00 00 
    2484:	ff d0                	call   *%rax
    2486:	48 89 c7             	mov    %rax,%rdi
    2489:	89 7d a0             	mov    %edi,-0x60(%rbp)
    248c:	48 8b 7d b0          	mov    -0x50(%rbp),%rdi
    2490:	48 81 ff 00 00 00 00 	cmp    $0x0,%rdi
    2497:	0f 84 08 00 00 00    	je     0x24a5
    249d:	48 ff 47 20          	incq   0x20(%rdi)
    24a1:	48 ff 47 28          	incq   0x28(%rdi)
    24a5:	48 8b 75 b8          	mov    -0x48(%rbp),%rsi
    24a9:	48 81 fe 00 00 00 00 	cmp    $0x0,%rsi
    24b0:	0f 84 08 00 00 00    	je     0x24be
    24b6:	48 ff 46 20          	incq   0x20(%rsi)
    24ba:	48 ff 46 28          	incq   0x28(%rsi)
    24be:	48 89 f1             	mov    %rsi,%rcx
    24c1:	48 ff 49 20          	decq   0x20(%rcx)
    24c5:	48 ff 49 28          	decq   0x28(%rcx)
    24c9:	48 8b 51 18          	mov    0x18(%rcx),%rdx
    24cd:	48 81 c2 18 00 00 00 	add    $0x18,%rdx
    24d4:	48 8b 32             	mov    (%rdx),%rsi
    24d7:	48 81 fe 00 00 00 00 	cmp    $0x0,%rsi
    24de:	0f 84 08 00 00 00    	je     0x24ec
    24e4:	48 ff 46 20          	incq   0x20(%rsi)
    24e8:	48 ff 46 28          	incq   0x28(%rsi)
    24ec:	49 89 f0             	mov    %rsi,%r8
    24ef:	48 81 fe 00 00 00 00 	cmp    $0x0,%rsi
    24f6:	0f 84 08 00 00 00    	je     0x2504
    24fc:	48 ff 46 20          	incq   0x20(%rsi)
    2500:	48 ff 46 28          	incq   0x28(%rsi)
    2504:	44 8b 4d a8          	mov    -0x58(%rbp),%r9d
    2508:	ff 45 a8             	incl   -0x58(%rbp)
    250b:	48 b8 80 5c 69 55 55 	movabs $0x555555695c80,%rax
    2512:	55 00 00 
    2515:	4c 89 40 00          	mov    %r8,0x0(%rax)
    2519:	4c 89 48 08          	mov    %r9,0x8(%rax)
    251d:	48 89 f1             	mov    %rsi,%rcx
    2520:	48 ff 49 20          	decq   0x20(%rcx)
    2524:	48 ff 49 28          	decq   0x28(%rcx)
    2528:	48 8b 51 18          	mov    0x18(%rcx),%rdx
    252c:	48 81 c2 18 00 00 00 	add    $0x18,%rdx
    2533:	48 8b 32             	mov    (%rdx),%rsi
    2536:	57                   	push   %rdi
    2537:	48 89 f7             	mov    %rsi,%rdi
    253a:	48 b8 3f bd 58 55 55 	movabs $0x55555558bd3f,%rax
    2541:	55 00 00 
    2544:	ff d0                	call   *%rax
    2546:	5f                   	pop    %rdi
    2547:	48 89 c6             	mov    %rax,%rsi
    254a:	48 b8 80 5c 69 55 55 	movabs $0x555555695c80,%rax
    2551:	55 00 00 
    2554:	48 89 78 00          	mov    %rdi,0x0(%rax)
    2558:	48 89 70 08          	mov    %rsi,0x8(%rax)
    255c:	48 8b 4d f8          	mov    -0x8(%rbp),%rcx
    2560:	48 8b 51 10          	mov    0x10(%rcx),%rdx
    2564:	48 8b 42 00          	mov    0x0(%rdx),%rax
    2568:	48 89 c7             	mov    %rax,%rdi
    256b:	48 8b 40 68          	mov    0x68(%rax),%rax
    256f:	48 b9 20 34 00 00 00 	movabs $0x3420,%rcx
    2576:	00 00 00 
    2579:	48 8b 04 c8          	mov    (%rax,%rcx,8),%rax
    257d:	ff d0                	call   *%rax
    257f:	48 89 c7             	mov    %rax,%rdi
    2582:	48 31 ff             	xor    %rdi,%rdi
    2585:	8b 7d a0             	mov    -0x60(%rbp),%edi
    2588:	ff 45 a0             	incl   -0x60(%rbp)
    258b:	48 31 ff             	xor    %rdi,%rdi
    258e:	e9 82 fa ff ff       	jmp    0x2015
    2593:	48 31 ff             	xor    %rdi,%rdi
    2596:	89 7d a0             	mov    %edi,-0x60(%rbp)
    2599:	48 8b 7d b0          	mov    -0x50(%rbp),%rdi
    259d:	48 81 ff 00 00 00 00 	cmp    $0x0,%rdi
    25a4:	0f 84 08 00 00 00    	je     0x25b2
    25aa:	48 ff 47 20          	incq   0x20(%rdi)
    25ae:	48 ff 47 28          	incq   0x28(%rdi)
    25b2:	48 31 f6             	xor    %rsi,%rsi
    25b5:	89 75 a8             	mov    %esi,-0x58(%rbp)
    25b8:	48 31 f6             	xor    %rsi,%rsi
    25bb:	48 8b 4d b0          	mov    -0x50(%rbp),%rcx
    25bf:	48 31 d2             	xor    %rdx,%rdx
    25c2:	48 39 d1             	cmp    %rdx,%rcx
    25c5:	0f 84 25 00 00 00    	je     0x25f0
    25cb:	48 ff 49 20          	decq   0x20(%rcx)
    25cf:	48 ff 49 28          	decq   0x28(%rcx)
    25d3:	48 39 51 20          	cmp    %rdx,0x20(%rcx)
    25d7:	0f 85 13 00 00 00    	jne    0x25f0
    25dd:	57                   	push   %rdi
    25de:	56                   	push   %rsi
    25df:	48 b8 7f 95 58 55 55 	movabs $0x55555558957f,%rax
    25e6:	55 00 00 
    25e9:	48 89 cf             	mov    %rcx,%rdi
    25ec:	ff d0                	call   *%rax
    25ee:	5e                   	pop    %rsi
    25ef:	5f                   	pop    %rdi
    25f0:	48 89 75 b0          	mov    %rsi,-0x50(%rbp)
    25f4:	48 31 f6             	xor    %rsi,%rsi
    25f7:	48 8b 4d b8          	mov    -0x48(%rbp),%rcx
    25fb:	48 31 d2             	xor    %rdx,%rdx
    25fe:	48 39 d1             	cmp    %rdx,%rcx
    2601:	0f 84 25 00 00 00    	je     0x262c
    2607:	48 ff 49 20          	decq   0x20(%rcx)
    260b:	48 ff 49 28          	decq   0x28(%rcx)
    260f:	48 39 51 20          	cmp    %rdx,0x20(%rcx)
    2613:	0f 85 13 00 00 00    	jne    0x262c
    2619:	57                   	push   %rdi
    261a:	56                   	push   %rsi
    261b:	48 b8 7f 95 58 55 55 	movabs $0x55555558957f,%rax
    2622:	55 00 00 
    2625:	48 89 cf             	mov    %rcx,%rdi
    2628:	ff d0                	call   *%rax
    262a:	5e                   	pop    %rsi
    262b:	5f                   	pop    %rdi
    262c:	48 89 75 b8          	mov    %rsi,-0x48(%rbp)
    2630:	48 89 f8             	mov    %rdi,%rax
    2633:	c9                   	leave  
    2634:	c3                   	ret    
    2635:	48 31 ff             	xor    %rdi,%rdi
    2638:	89 7d a8             	mov    %edi,-0x58(%rbp)
    263b:	48 31 ff             	xor    %rdi,%rdi
    263e:	48 8b 4d b0          	mov    -0x50(%rbp),%rcx
    2642:	48 31 d2             	xor    %rdx,%rdx
    2645:	48 39 d1             	cmp    %rdx,%rcx
    2648:	0f 84 23 00 00 00    	je     0x2671
    264e:	48 ff 49 20          	decq   0x20(%rcx)
    2652:	48 ff 49 28          	decq   0x28(%rcx)
    2656:	48 39 51 20          	cmp    %rdx,0x20(%rcx)
    265a:	0f 85 11 00 00 00    	jne    0x2671
    2660:	57                   	push   %rdi
    2661:	48 b8 7f 95 58 55 55 	movabs $0x55555558957f,%rax
    2668:	55 00 00 
    266b:	48 89 cf             	mov    %rcx,%rdi
    266e:	ff d0                	call   *%rax
    2670:	5f                   	pop    %rdi
    2671:	48 89 7d b0          	mov    %rdi,-0x50(%rbp)
    2675:	48 31 ff             	xor    %rdi,%rdi
    2678:	48 8b 4d b8          	mov    -0x48(%rbp),%rcx
    267c:	48 31 d2             	xor    %rdx,%rdx
    267f:	48 39 d1             	cmp    %rdx,%rcx
    2682:	0f 84 23 00 00 00    	je     0x26ab
    2688:	48 ff 49 20          	decq   0x20(%rcx)
    268c:	48 ff 49 28          	decq   0x28(%rcx)
    2690:	48 39 51 20          	cmp    %rdx,0x20(%rcx)
    2694:	0f 85 11 00 00 00    	jne    0x26ab
    269a:	57                   	push   %rdi
    269b:	48 b8 7f 95 58 55 55 	movabs $0x55555558957f,%rax
    26a2:	55 00 00 
    26a5:	48 89 cf             	mov    %rcx,%rdi
    26a8:	ff d0                	call   *%rax
    26aa:	5f                   	pop    %rdi
    26ab:	48 89 7d b8          	mov    %rdi,-0x48(%rbp)
    26af:	48 31 ff             	xor    %rdi,%rdi
    26b2:	48 89 f8             	mov    %rdi,%rax
    26b5:	c9                   	leave  
    26b6:	c3                   	ret    
    26b7:	55                   	push   %rbp
    26b8:	48 89 e5             	mov    %rsp,%rbp
    26bb:	48 81 ec 40 00 00 00 	sub    $0x40,%rsp
    26c2:	48 89 7d f8          	mov    %rdi,-0x8(%rbp)
    26c6:	48 b8 00 5d 69 55 55 	movabs $0x555555695d00,%rax
    26cd:	55 00 00 
    26d0:	48 8b 00             	mov    (%rax),%rax
    26d3:	48 89 45 f0          	mov    %rax,-0x10(%rbp)
    26d7:	48 31 c0             	xor    %rax,%rax
    26da:	48 b8 80 5c 69 55 55 	movabs $0x555555695c80,%rax
    26e1:	55 00 00 
    26e4:	48 b8 4d c0 58 55 55 	movabs $0x55555558c04d,%rax
    26eb:	55 00 00 
    26ee:	ff d0                	call   *%rax
    26f0:	48 89 c7             	mov    %rax,%rdi
    26f3:	48 89 f8             	mov    %rdi,%rax
    26f6:	c9                   	leave  
    26f7:	c3                   	ret    
    26f8:	48 31 ff             	xor    %rdi,%rdi
    26fb:	48 89 f8             	mov    %rdi,%rax
    26fe:	c9                   	leave  
    26ff:	c3                   	ret    
    2700:	55                   	push   %rbp
    2701:	48 89 e5             	mov    %rsp,%rbp
    2704:	48 81 ec 60 00 00 00 	sub    $0x60,%rsp
    270b:	48 89 7d f8          	mov    %rdi,-0x8(%rbp)
    270f:	48 b8 00 5d 69 55 55 	movabs $0x555555695d00,%rax
    2716:	55 00 00 
    2719:	48 8b 00             	mov    (%rax),%rax
    271c:	48 89 45 f0          	mov    %rax,-0x10(%rbp)
    2720:	48 31 c0             	xor    %rax,%rax
    2723:	48 89 45 b8          	mov    %rax,-0x48(%rbp)
    2727:	48 89 45 b0          	mov    %rax,-0x50(%rbp)
    272b:	48 89 45 a8          	mov    %rax,-0x58(%rbp)
    272f:	48 89 45 a0          	mov    %rax,-0x60(%rbp)
    2733:	48 b8 80 5c 69 55 55 	movabs $0x555555695c80,%rax
    273a:	55 00 00 
    273d:	48 8b 48 00          	mov    0x0(%rax),%rcx
    2741:	48 89 4d b8          	mov    %rcx,-0x48(%rbp)
    2745:	48 31 ff             	xor    %rdi,%rdi
    2748:	89 7d b0             	mov    %edi,-0x50(%rbp)
    274b:	48 bf 01 00 00 00 00 	movabs $0x1,%rdi
    2752:	00 00 00 
    2755:	89 7d a8             	mov    %edi,-0x58(%rbp)
    2758:	48 b8 80 5c 69 55 55 	movabs $0x555555695c80,%rax
    275f:	55 00 00 
    2762:	48 8b 4d f8          	mov    -0x8(%rbp),%rcx
    2766:	48 8b 51 10          	mov    0x10(%rcx),%rdx
    276a:	48 8b 42 00          	mov    0x0(%rdx),%rax
    276e:	48 89 c7             	mov    %rax,%rdi
    2771:	48 8b 40 68          	mov    0x68(%rax),%rax
    2775:	48 b9 fc 17 00 00 00 	movabs $0x17fc,%rcx
    277c:	00 00 00 
    277f:	48 8b 04 c8          	mov    (%rax,%rcx,8),%rax
    2783:	ff d0                	call   *%rax
    2785:	48 89 c7             	mov    %rax,%rdi
    2788:	40 88 7d a0          	mov    %dil,-0x60(%rbp)
    278c:	48 8b 7d a0          	mov    -0x60(%rbp),%rdi
    2790:	48 be 30 00 00 00 00 	movabs $0x30,%rsi
    2797:	00 00 00 
    279a:	40 38 f7             	cmp    %sil,%dil
    279d:	0f 8c 08 00 00 00    	jl     0x27ab
    27a3:	48 31 ff             	xor    %rdi,%rdi
    27a6:	e9 0a 00 00 00       	jmp    0x27b5
    27ab:	48 bf 01 00 00 00 00 	movabs $0x1,%rdi
    27b2:	00 00 00 
    27b5:	48 81 ff 00 00 00 00 	cmp    $0x0,%rdi
    27bc:	0f 85 45 00 00 00    	jne    0x2807
    27c2:	48 8b 7d a0          	mov    -0x60(%rbp),%rdi
    27c6:	48 be 39 00 00 00 00 	movabs $0x39,%rsi
    27cd:	00 00 00 
    27d0:	40 38 f7             	cmp    %sil,%dil
    27d3:	0f 8f 08 00 00 00    	jg     0x27e1
    27d9:	48 31 ff             	xor    %rdi,%rdi
    27dc:	e9 0a 00 00 00       	jmp    0x27eb
    27e1:	48 bf 01 00 00 00 00 	movabs $0x1,%rdi
    27e8:	00 00 00 
    27eb:	48 81 ff 00 00 00 00 	cmp    $0x0,%rdi
    27f2:	0f 85 0f 00 00 00    	jne    0x2807
    27f8:	48 b8 00 00 00 00 00 	movabs $0x0,%rax
    27ff:	00 00 00 
    2802:	e9 0a 00 00 00       	jmp    0x2811
    2807:	48 b8 01 00 00 00 00 	movabs $0x1,%rax
    280e:	00 00 00 
    2811:	48 89 c7             	mov    %rax,%rdi
    2814:	48 81 ff 00 00 00 00 	cmp    $0x0,%rdi
    281b:	0f 84 86 00 00 00    	je     0x28a7
    2821:	48 8b 7d a0          	mov    -0x60(%rbp),%rdi
    2825:	48 be 2d 00 00 00 00 	movabs $0x2d,%rsi
    282c:	00 00 00 
    282f:	40 38 f7             	cmp    %sil,%dil
    2832:	0f 84 08 00 00 00    	je     0x2840
    2838:	48 31 ff             	xor    %rdi,%rdi
    283b:	e9 0a 00 00 00       	jmp    0x284a
    2840:	48 bf 01 00 00 00 00 	movabs $0x1,%rdi
    2847:	00 00 00 
    284a:	48 81 ff 00 00 00 00 	cmp    $0x0,%rdi
    2851:	0f 84 17 00 00 00    	je     0x286e
    2857:	48 31 ff             	xor    %rdi,%rdi
    285a:	48 be 01 00 00 00 00 	movabs $0x1,%rsi
    2861:	00 00 00 
    2864:	29 f7                	sub    %esi,%edi
    2866:	89 7d a8             	mov    %edi,-0x58(%rbp)
    2869:	e9 00 00 00 00       	jmp    0x286e
    286e:	48 b8 80 5c 69 55 55 	movabs $0x555555695c80,%rax
    2875:	55 00 00 
    2878:	48 8b 4d f8          	mov    -0x8(%rbp),%rcx
    287c:	48 8b 51 10          	mov    0x10(%rcx),%rdx
    2880:	48 8b 42 00          	mov    0x0(%rdx),%rax
    2884:	48 89 c7             	mov    %rax,%rdi
    2887:	48 8b 40 68          	mov    0x68(%rax),%rax
    288b:	48 b9 fc 17 00 00 00 	movabs $0x17fc,%rcx
    2892:	00 00 00 
    2895:	48 8b 04 c8          	mov    (%rax,%rcx,8),%rax
    2899:	ff d0                	call   *%rax
    289b:	48 89 c7             	mov    %rax,%rdi
    289e:	40 88 7d a0          	mov    %dil,-0x60(%rbp)
    28a2:	e9 e5 fe ff ff       	jmp    0x278c
    28a7:	48 8b 7d b8          	mov    -0x48(%rbp),%rdi
    28ab:	48 be 0a 00 00 00 00 	movabs $0xa,%rsi
    28b2:	00 00 00 
    28b5:	39 f7                	cmp    %esi,%edi
    28b7:	0f 8e 08 00 00 00    	jle    0x28c5
    28bd:	48 31 ff             	xor    %rdi,%rdi
    28c0:	e9 0a 00 00 00       	jmp    0x28cf
    28c5:	48 bf 01 00 00 00 00 	movabs $0x1,%rdi
    28cc:	00 00 00 
    28cf:	48 81 ff 00 00 00 00 	cmp    $0x0,%rdi
    28d6:	0f 84 f7 00 00 00    	je     0x29d3
    28dc:	48 bf 30 00 00 00 00 	movabs $0x30,%rdi
    28e3:	00 00 00 
    28e6:	48 8b 75 a0          	mov    -0x60(%rbp),%rsi
    28ea:	40 38 f7             	cmp    %sil,%dil
    28ed:	0f 8e 08 00 00 00    	jle    0x28fb
    28f3:	48 31 ff             	xor    %rdi,%rdi
    28f6:	e9 0a 00 00 00       	jmp    0x2905
    28fb:	48 bf 01 00 00 00 00 	movabs $0x1,%rdi
    2902:	00 00 00 
    2905:	48 81 ff 00 00 00 00 	cmp    $0x0,%rdi
    290c:	0f 84 45 00 00 00    	je     0x2957
    2912:	48 8b 7d a0          	mov    -0x60(%rbp),%rdi
    2916:	48 be 39 00 00 00 00 	movabs $0x39,%rsi
    291d:	00 00 00 
    2920:	40 38 f7             	cmp    %sil,%dil
    2923:	0f 8e 08 00 00 00    	jle    0x2931
    2929:	48 31 ff             	xor    %rdi,%rdi
    292c:	e9 0a 00 00 00       	jmp    0x293b
    2931:	48 bf 01 00 00 00 00 	movabs $0x1,%rdi
    2938:	00 00 00 
    293b:	48 81 ff 00 00 00 00 	cmp    $0x0,%rdi
    2942:	0f 84 0f 00 00 00    	je     0x2957
    2948:	48 b8 01 00 00 00 00 	movabs $0x1,%rax
    294f:	00 00 00 
    2952:	e9 0a 00 00 00       	jmp    0x2961
    2957:	48 b8 00 00 00 00 00 	movabs $0x0,%rax
    295e:	00 00 00 
    2961:	48 89 c7             	mov    %rax,%rdi
    2964:	48 81 ff 00 00 00 00 	cmp    $0x0,%rdi
    296b:	0f 84 5d 00 00 00    	je     0x29ce
    2971:	48 8b 7d b0          	mov    -0x50(%rbp),%rdi
    2975:	48 8b 75 b8          	mov    -0x48(%rbp),%rsi
    2979:	89 f8                	mov    %edi,%eax
    297b:	f7 ee                	imul   %esi
    297d:	89 c7                	mov    %eax,%edi
    297f:	48 8b 75 a0          	mov    -0x60(%rbp),%rsi
    2983:	49 b8 30 00 00 00 00 	movabs $0x30,%r8
    298a:	00 00 00 
    298d:	44 28 c6             	sub    %r8b,%sil
    2990:	01 f7                	add    %esi,%edi
    2992:	89 7d b0             	mov    %edi,-0x50(%rbp)
    2995:	48 b8 80 5c 69 55 55 	movabs $0x555555695c80,%rax
    299c:	55 00 00 
    299f:	48 8b 4d f8          	mov    -0x8(%rbp),%rcx
    29a3:	48 8b 51 10          	mov    0x10(%rcx),%rdx
    29a7:	48 8b 42 00          	mov    0x0(%rdx),%rax
    29ab:	48 89 c7             	mov    %rax,%rdi
    29ae:	48 8b 40 68          	mov    0x68(%rax),%rax
    29b2:	48 b9 fc 17 00 00 00 	movabs $0x17fc,%rcx
    29b9:	00 00 00 
    29bc:	48 8b 04 c8          	mov    (%rax,%rcx,8),%rax
    29c0:	ff d0                	call   *%rax
    29c2:	48 89 c7             	mov    %rax,%rdi
    29c5:	40 88 7d a0          	mov    %dil,-0x60(%rbp)
    29c9:	e9 0e ff ff ff       	jmp    0x28dc
    29ce:	e9 6e 02 00 00       	jmp    0x2c41
    29d3:	48 bf 30 00 00 00 00 	movabs $0x30,%rdi
    29da:	00 00 00 
    29dd:	48 8b 75 a0          	mov    -0x60(%rbp),%rsi
    29e1:	40 38 f7             	cmp    %sil,%dil
    29e4:	0f 8e 08 00 00 00    	jle    0x29f2
    29ea:	48 31 ff             	xor    %rdi,%rdi
    29ed:	e9 0a 00 00 00       	jmp    0x29fc
    29f2:	48 bf 01 00 00 00 00 	movabs $0x1,%rdi
    29f9:	00 00 00 
    29fc:	48 81 ff 00 00 00 00 	cmp    $0x0,%rdi
    2a03:	0f 84 45 00 00 00    	je     0x2a4e
    2a09:	48 8b 7d a0          	mov    -0x60(%rbp),%rdi
    2a0d:	48 be 39 00 00 00 00 	movabs $0x39,%rsi
    2a14:	00 00 00 
    2a17:	40 38 f7             	cmp    %sil,%dil
    2a1a:	0f 8e 08 00 00 00    	jle    0x2a28
    2a20:	48 31 ff             	xor    %rdi,%rdi
    2a23:	e9 0a 00 00 00       	jmp    0x2a32
    2a28:	48 bf 01 00 00 00 00 	movabs $0x1,%rdi
    2a2f:	00 00 00 
    2a32:	48 81 ff 00 00 00 00 	cmp    $0x0,%rdi
    2a39:	0f 84 0f 00 00 00    	je     0x2a4e
    2a3f:	48 b8 01 00 00 00 00 	movabs $0x1,%rax
    2a46:	00 00 00 
    2a49:	e9 0a 00 00 00       	jmp    0x2a58
    2a4e:	48 b8 00 00 00 00 00 	movabs $0x0,%rax
    2a55:	00 00 00 
    2a58:	48 89 c7             	mov    %rax,%rdi
    2a5b:	48 81 ff 00 00 00 00 	cmp    $0x0,%rdi
    2a62:	0f 85 a4 00 00 00    	jne    0x2b0c
    2a68:	48 bf 61 00 00 00 00 	movabs $0x61,%rdi
    2a6f:	00 00 00 
    2a72:	48 8b 75 a0          	mov    -0x60(%rbp),%rsi
    2a76:	40 38 f7             	cmp    %sil,%dil
    2a79:	0f 8e 08 00 00 00    	jle    0x2a87
    2a7f:	48 31 ff             	xor    %rdi,%rdi
    2a82:	e9 0a 00 00 00       	jmp    0x2a91
    2a87:	48 bf 01 00 00 00 00 	movabs $0x1,%rdi
    2a8e:	00 00 00 
    2a91:	48 81 ff 00 00 00 00 	cmp    $0x0,%rdi
    2a98:	0f 84 45 00 00 00    	je     0x2ae3
    2a9e:	48 8b 7d a0          	mov    -0x60(%rbp),%rdi
    2aa2:	48 be 7a 00 00 00 00 	movabs $0x7a,%rsi
    2aa9:	00 00 00 
    2aac:	40 38 f7             	cmp    %sil,%dil
    2aaf:	0f 8e 08 00 00 00    	jle    0x2abd
    2ab5:	48 31 ff             	xor    %rdi,%rdi
    2ab8:	e9 0a 00 00 00       	jmp    0x2ac7
    2abd:	48 bf 01 00 00 00 00 	movabs $0x1,%rdi
    2ac4:	00 00 00 
    2ac7:	48 81 ff 00 00 00 00 	cmp    $0x0,%rdi
    2ace:	0f 84 0f 00 00 00    	je     0x2ae3
    2ad4:	48 b8 01 00 00 00 00 	movabs $0x1,%rax
    2adb:	00 00 00 
    2ade:	e9 0a 00 00 00       	jmp    0x2aed
    2ae3:	48 b8 00 00 00 00 00 	movabs $0x0,%rax
    2aea:	00 00 00 
    2aed:	48 89 c7             	mov    %rax,%rdi
    2af0:	48 81 ff 00 00 00 00 	cmp    $0x0,%rdi
    2af7:	0f 85 0f 00 00 00    	jne    0x2b0c
    2afd:	48 b8 00 00 00 00 00 	movabs $0x0,%rax
    2b04:	00 00 00 
    2b07:	e9 0a 00 00 00       	jmp    0x2b16
    2b0c:	48 b8 01 00 00 00 00 	movabs $0x1,%rax
    2b13:	00 00 00 
    2b16:	48 89 c7             	mov    %rax,%rdi
    2b19:	48 81 ff 00 00 00 00 	cmp    $0x0,%rdi
    2b20:	0f 84 1b 01 00 00    	je     0x2c41
    2b26:	48 bf 30 00 00 00 00 	movabs $0x30,%rdi
    2b2d:	00 00 00 
    2b30:	48 8b 75 a0          	mov    -0x60(%rbp),%rsi
    2b34:	40 38 f7             	cmp    %sil,%dil
    2b37:	0f 8e 08 00 00 00    	jle    0x2b45
    2b3d:	48 31 ff             	xor    %rdi,%rdi
    2b40:	e9 0a 00 00 00       	jmp    0x2b4f
    2b45:	48 bf 01 00 00 00 00 	movabs $0x1,%rdi
    2b4c:	00 00 00 
    2b4f:	48 81 ff 00 00 00 00 	cmp    $0x0,%rdi
    2b56:	0f 84 45 00 00 00    	je     0x2ba1
    2b5c:	48 8b 7d a0          	mov    -0x60(%rbp),%rdi
    2b60:	48 be 39 00 00 00 00 	movabs $0x39,%rsi
    2b67:	00 00 00 
    2b6a:	40 38 f7             	cmp    %sil,%dil
    2b6d:	0f 8e 08 00 00 00    	jle    0x2b7b
    2b73:	48 31 ff             	xor    %rdi,%rdi
    2b76:	e9 0a 00 00 00       	jmp    0x2b85
    2b7b:	48 bf 01 00 00 00 00 	movabs $0x1,%rdi
    2b82:	00 00 00 
    2b85:	48 81 ff 00 00 00 00 	cmp    $0x0,%rdi
    2b8c:	0f 84 0f 00 00 00    	je     0x2ba1
    2b92:	48 b8 01 00 00 00 00 	movabs $0x1,%rax
    2b99:	00 00 00 
    2b9c:	e9 0a 00 00 00       	jmp    0x2bab
    2ba1:	48 b8 00 00 00 00 00 	movabs $0x0,%rax
    2ba8:	00 00 00 
    2bab:	48 89 c7             	mov    %rax,%rdi
    2bae:	48 81 ff 00 00 00 00 	cmp    $0x0,%rdi
    2bb5:	0f 84 29 00 00 00    	je     0x2be4
    2bbb:	48 8b 7d b0          	mov    -0x50(%rbp),%rdi
    2bbf:	48 8b 75 b8          	mov    -0x48(%rbp),%rsi
    2bc3:	89 f8                	mov    %edi,%eax
    2bc5:	f7 ee                	imul   %esi
    2bc7:	89 c7                	mov    %eax,%edi
    2bc9:	48 8b 75 a0          	mov    -0x60(%rbp),%rsi
    2bcd:	49 b8 30 00 00 00 00 	movabs $0x30,%r8
    2bd4:	00 00 00 
    2bd7:	44 28 c6             	sub    %r8b,%sil
    2bda:	01 f7                	add    %esi,%edi
    2bdc:	89 7d b0             	mov    %edi,-0x50(%rbp)
    2bdf:	e9 24 00 00 00       	jmp    0x2c08
    2be4:	48 8b 7d b0          	mov    -0x50(%rbp),%rdi
    2be8:	48 8b 75 b8          	mov    -0x48(%rbp),%rsi
    2bec:	89 f8                	mov    %edi,%eax
    2bee:	f7 ee                	imul   %esi
    2bf0:	89 c7                	mov    %eax,%edi
    2bf2:	48 8b 75 a0          	mov    -0x60(%rbp),%rsi
    2bf6:	49 b8 61 00 00 00 00 	movabs $0x61,%r8
    2bfd:	00 00 00 
    2c00:	44 28 c6             	sub    %r8b,%sil
    2c03:	01 f7                	add    %esi,%edi
    2c05:	89 7d b0             	mov    %edi,-0x50(%rbp)
    2c08:	48 b8 80 5c 69 55 55 	movabs $0x555555695c80,%rax
    2c0f:	55 00 00 
    2c12:	48 8b 4d f8          	mov    -0x8(%rbp),%rcx
    2c16:	48 8b 51 10          	mov    0x10(%rcx),%rdx
    2c1a:	48 8b 42 00          	mov    0x0(%rdx),%rax
    2c1e:	48 89 c7             	mov    %rax,%rdi
    2c21:	48 8b 40 68          	mov    0x68(%rax),%rax
    2c25:	48 b9 fc 17 00 00 00 	movabs $0x17fc,%rcx
    2c2c:	00 00 00 
    2c2f:	48 8b 04 c8          	mov    (%rax,%rcx,8),%rax
    2c33:	ff d0                	call   *%rax
    2c35:	48 89 c7             	mov    %rax,%rdi
    2c38:	40 88 7d a0          	mov    %dil,-0x60(%rbp)
    2c3c:	e9 92 fd ff ff       	jmp    0x29d3
    2c41:	48 8b 7d b0          	mov    -0x50(%rbp),%rdi
    2c45:	48 8b 75 a8          	mov    -0x58(%rbp),%rsi
    2c49:	89 f8                	mov    %edi,%eax
    2c4b:	f7 ee                	imul   %esi
    2c4d:	89 c7                	mov    %eax,%edi
    2c4f:	48 31 f6             	xor    %rsi,%rsi
    2c52:	40 88 75 a0          	mov    %sil,-0x60(%rbp)
    2c56:	48 31 f6             	xor    %rsi,%rsi
    2c59:	89 75 a8             	mov    %esi,-0x58(%rbp)
    2c5c:	48 31 f6             	xor    %rsi,%rsi
    2c5f:	89 75 b0             	mov    %esi,-0x50(%rbp)
    2c62:	48 31 f6             	xor    %rsi,%rsi
    2c65:	89 75 b8             	mov    %esi,-0x48(%rbp)
    2c68:	48 89 f8             	mov    %rdi,%rax
    2c6b:	c9                   	leave  
    2c6c:	c3                   	ret    
    2c6d:	48 31 ff             	xor    %rdi,%rdi
    2c70:	40 88 7d a0          	mov    %dil,-0x60(%rbp)
    2c74:	48 31 ff             	xor    %rdi,%rdi
    2c77:	89 7d a8             	mov    %edi,-0x58(%rbp)
    2c7a:	48 31 ff             	xor    %rdi,%rdi
    2c7d:	89 7d b0             	mov    %edi,-0x50(%rbp)
    2c80:	48 31 ff             	xor    %rdi,%rdi
    2c83:	89 7d b8             	mov    %edi,-0x48(%rbp)
    2c86:	48 31 ff             	xor    %rdi,%rdi
    2c89:	48 89 f8             	mov    %rdi,%rax
    2c8c:	c9                   	leave  
    2c8d:	c3                   	ret    
    2c8e:	55                   	push   %rbp
    2c8f:	48 89 e5             	mov    %rsp,%rbp
    2c92:	48 81 ec 48 00 00 00 	sub    $0x48,%rsp
    2c99:	48 89 7d f8          	mov    %rdi,-0x8(%rbp)
    2c9d:	48 b8 00 5d 69 55 55 	movabs $0x555555695d00,%rax
    2ca4:	55 00 00 
    2ca7:	48 8b 00             	mov    (%rax),%rax
    2caa:	48 89 45 f0          	mov    %rax,-0x10(%rbp)
    2cae:	48 31 c0             	xor    %rax,%rax
    2cb1:	48 89 45 b8          	mov    %rax,-0x48(%rbp)
    2cb5:	48 b8 80 5c 69 55 55 	movabs $0x555555695c80,%rax
    2cbc:	55 00 00 
    2cbf:	48 8b 48 00          	mov    0x0(%rax),%rcx
    2cc3:	48 89 4d b8          	mov    %rcx,-0x48(%rbp)
    2cc7:	48 8b 7d b8          	mov    -0x48(%rbp),%rdi
    2ccb:	48 89 ff             	mov    %rdi,%rdi
    2cce:	48 b8 5c c0 58 55 55 	movabs $0x55555558c05c,%rax
    2cd5:	55 00 00 
    2cd8:	ff d0                	call   *%rax
    2cda:	48 89 c7             	mov    %rax,%rdi
    2cdd:	48 31 ff             	xor    %rdi,%rdi
    2ce0:	48 31 ff             	xor    %rdi,%rdi
    2ce3:	89 7d b8             	mov    %edi,-0x48(%rbp)
    2ce6:	48 31 ff             	xor    %rdi,%rdi
    2ce9:	48 31 c0             	xor    %rax,%rax
    2cec:	c9                   	leave  
    2ced:	c3                   	ret    
    2cee:	55                   	push   %rbp
    2cef:	48 89 e5             	mov    %rsp,%rbp
    2cf2:	48 81 ec 48 00 00 00 	sub    $0x48,%rsp
    2cf9:	48 89 7d f8          	mov    %rdi,-0x8(%rbp)
    2cfd:	48 b8 00 5d 69 55 55 	movabs $0x555555695d00,%rax
    2d04:	55 00 00 
    2d07:	48 8b 00             	mov    (%rax),%rax
    2d0a:	48 89 45 f0          	mov    %rax,-0x10(%rbp)
    2d0e:	48 31 c0             	xor    %rax,%rax
    2d11:	48 89 45 b8          	mov    %rax,-0x48(%rbp)
    2d15:	48 b8 80 5c 69 55 55 	movabs $0x555555695c80,%rax
    2d1c:	55 00 00 
    2d1f:	48 8b 48 00          	mov    0x0(%rax),%rcx
    2d23:	48 89 4d b8          	mov    %rcx,-0x48(%rbp)
    2d27:	48 8b 7d b8          	mov    -0x48(%rbp),%rdi
    2d2b:	48 89 ff             	mov    %rdi,%rdi
    2d2e:	48 b8 59 c2 58 55 55 	movabs $0x55555558c259,%rax
    2d35:	55 00 00 
    2d38:	ff d0                	call   *%rax
    2d3a:	48 89 c7             	mov    %rax,%rdi
    2d3d:	48 31 ff             	xor    %rdi,%rdi
    2d40:	48 31 ff             	xor    %rdi,%rdi
    2d43:	89 7d b8             	mov    %edi,-0x48(%rbp)
    2d46:	48 31 ff             	xor    %rdi,%rdi
    2d49:	48 31 c0             	xor    %rax,%rax
    2d4c:	c9                   	leave  
    2d4d:	c3                   	ret    
    2d4e:	55                   	push   %rbp
    2d4f:	48 89 e5             	mov    %rsp,%rbp
    2d52:	48 81 ec 50 00 00 00 	sub    $0x50,%rsp
    2d59:	48 89 7d f8          	mov    %rdi,-0x8(%rbp)
    2d5d:	48 b8 00 5d 69 55 55 	movabs $0x555555695d00,%rax
    2d64:	55 00 00 
    2d67:	48 8b 00             	mov    (%rax),%rax
    2d6a:	48 89 45 f0          	mov    %rax,-0x10(%rbp)
    2d6e:	48 31 c0             	xor    %rax,%rax
    2d71:	48 89 45 b8          	mov    %rax,-0x48(%rbp)
    2d75:	48 89 45 b0          	mov    %rax,-0x50(%rbp)
    2d79:	48 b8 80 5c 69 55 55 	movabs $0x555555695c80,%rax
    2d80:	55 00 00 
    2d83:	48 8b 48 00          	mov    0x0(%rax),%rcx
    2d87:	48 89 4d b8          	mov    %rcx,-0x48(%rbp)
    2d8b:	48 31 ff             	xor    %rdi,%rdi
    2d8e:	89 7d b0             	mov    %edi,-0x50(%rbp)
    2d91:	48 8b 7d b8          	mov    -0x48(%rbp),%rdi
    2d95:	48 81 ff 00 00 00 00 	cmp    $0x0,%rdi
    2d9c:	0f 84 08 00 00 00    	je     0x2daa
    2da2:	48 ff 47 20          	incq   0x20(%rdi)
    2da6:	48 ff 47 28          	incq   0x28(%rdi)
    2daa:	48 8b 75 b0          	mov    -0x50(%rbp),%rsi
    2dae:	48 89 f9             	mov    %rdi,%rcx
    2db1:	48 ff 49 20          	decq   0x20(%rcx)
    2db5:	48 ff 49 28          	decq   0x28(%rcx)
    2db9:	48 8b 49 18          	mov    0x18(%rcx),%rcx
    2dbd:	48 bb 08 00 00 00 00 	movabs $0x8,%rbx
    2dc4:	00 00 00 
    2dc7:	48 8b 41 00          	mov    0x0(%rcx),%rax
    2dcb:	48 f7 e6             	mul    %rsi
    2dce:	48 01 c3             	add    %rax,%rbx
    2dd1:	48 01 d9             	add    %rbx,%rcx
    2dd4:	48 31 ff             	xor    %rdi,%rdi
    2dd7:	40 8a 39             	mov    (%rcx),%dil
    2dda:	48 31 f6             	xor    %rsi,%rsi
    2ddd:	40 38 f7             	cmp    %sil,%dil
    2de0:	0f 85 08 00 00 00    	jne    0x2dee
    2de6:	48 31 ff             	xor    %rdi,%rdi
    2de9:	e9 0a 00 00 00       	jmp    0x2df8
    2dee:	48 bf 01 00 00 00 00 	movabs $0x1,%rdi
    2df5:	00 00 00 
    2df8:	48 81 ff 00 00 00 00 	cmp    $0x0,%rdi
    2dff:	0f 84 8e 00 00 00    	je     0x2e93
    2e05:	48 8b 7d b8          	mov    -0x48(%rbp),%rdi
    2e09:	48 81 ff 00 00 00 00 	cmp    $0x0,%rdi
    2e10:	0f 84 08 00 00 00    	je     0x2e1e
    2e16:	48 ff 47 20          	incq   0x20(%rdi)
    2e1a:	48 ff 47 28          	incq   0x28(%rdi)
    2e1e:	48 8b 75 b0          	mov    -0x50(%rbp),%rsi
    2e22:	48 89 f9             	mov    %rdi,%rcx
    2e25:	48 ff 49 20          	decq   0x20(%rcx)
    2e29:	48 ff 49 28          	decq   0x28(%rcx)
    2e2d:	48 8b 49 18          	mov    0x18(%rcx),%rcx
    2e31:	48 bb 08 00 00 00 00 	movabs $0x8,%rbx
    2e38:	00 00 00 
    2e3b:	48 8b 41 00          	mov    0x0(%rcx),%rax
    2e3f:	48 f7 e6             	mul    %rsi
    2e42:	48 01 c3             	add    %rax,%rbx
    2e45:	48 01 d9             	add    %rbx,%rcx
    2e48:	48 31 ff             	xor    %rdi,%rdi
    2e4b:	40 8a 39             	mov    (%rcx),%dil
    2e4e:	48 b8 80 5c 69 55 55 	movabs $0x555555695c80,%rax
    2e55:	55 00 00 
    2e58:	48 89 78 00          	mov    %rdi,0x0(%rax)
    2e5c:	48 8b 4d f8          	mov    -0x8(%rbp),%rcx
    2e60:	48 8b 51 10          	mov    0x10(%rcx),%rdx
    2e64:	48 8b 42 00          	mov    0x0(%rdx),%rax
    2e68:	48 89 c7             	mov    %rax,%rdi
    2e6b:	48 8b 40 68          	mov    0x68(%rax),%rax
    2e6f:	48 b9 20 20 00 00 00 	movabs $0x2020,%rcx
    2e76:	00 00 00 
    2e79:	48 8b 04 c8          	mov    (%rax,%rcx,8),%rax
    2e7d:	ff d0                	call   *%rax
    2e7f:	48 89 c7             	mov    %rax,%rdi
    2e82:	48 31 ff             	xor    %rdi,%rdi
    2e85:	8b 7d b0             	mov    -0x50(%rbp),%edi
    2e88:	ff 45 b0             	incl   -0x50(%rbp)
    2e8b:	48 31 ff             	xor    %rdi,%rdi
    2e8e:	e9 fe fe ff ff       	jmp    0x2d91
    2e93:	48 31 ff             	xor    %rdi,%rdi
    2e96:	89 7d b0             	mov    %edi,-0x50(%rbp)
    2e99:	48 31 ff             	xor    %rdi,%rdi
    2e9c:	48 8b 4d b8          	mov    -0x48(%rbp),%rcx
    2ea0:	48 31 d2             	xor    %rdx,%rdx
    2ea3:	48 39 d1             	cmp    %rdx,%rcx
    2ea6:	0f 84 23 00 00 00    	je     0x2ecf
    2eac:	48 ff 49 20          	decq   0x20(%rcx)
    2eb0:	48 ff 49 28          	decq   0x28(%rcx)
    2eb4:	48 39 51 20          	cmp    %rdx,0x20(%rcx)
    2eb8:	0f 85 11 00 00 00    	jne    0x2ecf
    2ebe:	57                   	push   %rdi
    2ebf:	48 b8 7f 95 58 55 55 	movabs $0x55555558957f,%rax
    2ec6:	55 00 00 
    2ec9:	48 89 cf             	mov    %rcx,%rdi
    2ecc:	ff d0                	call   *%rax
    2ece:	5f                   	pop    %rdi
    2ecf:	48 89 7d b8          	mov    %rdi,-0x48(%rbp)
    2ed3:	48 31 ff             	xor    %rdi,%rdi
    2ed6:	48 31 c0             	xor    %rax,%rax
    2ed9:	c9                   	leave  
    2eda:	c3                   	ret    
    2edb:	55                   	push   %rbp
    2edc:	48 89 e5             	mov    %rsp,%rbp
    2edf:	48 81 ec 48 00 00 00 	sub    $0x48,%rsp
    2ee6:	48 89 7d f8          	mov    %rdi,-0x8(%rbp)
    2eea:	48 b8 00 5d 69 55 55 	movabs $0x555555695d00,%rax
    2ef1:	55 00 00 
    2ef4:	48 8b 00             	mov    (%rax),%rax
    2ef7:	48 89 45 f0          	mov    %rax,-0x10(%rbp)
    2efb:	48 31 c0             	xor    %rax,%rax
    2efe:	48 89 45 b8          	mov    %rax,-0x48(%rbp)
    2f02:	48 b8 80 5c 69 55 55 	movabs $0x555555695c80,%rax
    2f09:	55 00 00 
    2f0c:	48 8b 48 00          	mov    0x0(%rax),%rcx
    2f10:	48 89 4d b8          	mov    %rcx,-0x48(%rbp)
    2f14:	48 8b 7d b8          	mov    -0x48(%rbp),%rdi
    2f18:	48 89 ff             	mov    %rdi,%rdi
    2f1b:	48 b8 2e c0 58 55 55 	movabs $0x55555558c02e,%rax
    2f22:	55 00 00 
    2f25:	ff d0                	call   *%rax
    2f27:	48 89 c7             	mov    %rax,%rdi
    2f2a:	48 31 ff             	xor    %rdi,%rdi
    2f2d:	48 31 ff             	xor    %rdi,%rdi
    2f30:	40 88 7d b8          	mov    %dil,-0x48(%rbp)
    2f34:	48 31 ff             	xor    %rdi,%rdi
    2f37:	48 31 c0             	xor    %rax,%rax
    2f3a:	c9                   	leave  
    2f3b:	c3                   	ret    
    2f3c:	55                   	push   %rbp
    2f3d:	48 89 e5             	mov    %rsp,%rbp
    2f40:	48 81 ec 48 00 00 00 	sub    $0x48,%rsp
    2f47:	48 89 7d f8          	mov    %rdi,-0x8(%rbp)
    2f4b:	48 b8 00 5d 69 55 55 	movabs $0x555555695d00,%rax
    2f52:	55 00 00 
    2f55:	48 8b 00             	mov    (%rax),%rax
    2f58:	48 89 45 f0          	mov    %rax,-0x10(%rbp)
    2f5c:	48 31 c0             	xor    %rax,%rax
    2f5f:	48 89 45 b8          	mov    %rax,-0x48(%rbp)
    2f63:	48 b8 80 5c 69 55 55 	movabs $0x555555695c80,%rax
    2f6a:	55 00 00 
    2f6d:	48 8b 48 00          	mov    0x0(%rax),%rcx
    2f71:	48 89 4d b8          	mov    %rcx,-0x48(%rbp)
    2f75:	48 8b 7d b8          	mov    -0x48(%rbp),%rdi
    2f79:	48 81 ff 00 00 00 00 	cmp    $0x0,%rdi
    2f80:	0f 84 08 00 00 00    	je     0x2f8e
    2f86:	48 ff 47 20          	incq   0x20(%rdi)
    2f8a:	48 ff 47 28          	incq   0x28(%rdi)
    2f8e:	48 31 f6             	xor    %rsi,%rsi
    2f91:	40 8a 75 f0          	mov    -0x10(%rbp),%sil
    2f95:	48 89 f9             	mov    %rdi,%rcx
    2f98:	48 ff 49 20          	decq   0x20(%rcx)
    2f9c:	48 ff 49 28          	decq   0x28(%rcx)
    2fa0:	48 8b 51 18          	mov    0x18(%rcx),%rdx
    2fa4:	48 81 c2 48 00 00 00 	add    $0x48,%rdx
    2fab:	40 88 32             	mov    %sil,(%rdx)
    2fae:	48 31 ff             	xor    %rdi,%rdi
    2fb1:	40 8a 7d f0          	mov    -0x10(%rbp),%dil
    2fb5:	48 b8 00 5d 69 55 55 	movabs $0x555555695d00,%rax
    2fbc:	55 00 00 
    2fbf:	40 88 78 00          	mov    %dil,0x0(%rax)
    2fc3:	48 8b 7d b8          	mov    -0x48(%rbp),%rdi
    2fc7:	48 81 ff 00 00 00 00 	cmp    $0x0,%rdi
    2fce:	0f 84 08 00 00 00    	je     0x2fdc
    2fd4:	48 ff 47 20          	incq   0x20(%rdi)
    2fd8:	48 ff 47 28          	incq   0x28(%rdi)
    2fdc:	48 b8 80 5c 69 55 55 	movabs $0x555555695c80,%rax
    2fe3:	55 00 00 
    2fe6:	48 89 78 00          	mov    %rdi,0x0(%rax)
    2fea:	48 8b 4d f8          	mov    -0x8(%rbp),%rcx
    2fee:	48 8b 51 10          	mov    0x10(%rcx),%rdx
    2ff2:	48 8b 42 00          	mov    0x0(%rdx),%rax
    2ff6:	48 89 c7             	mov    %rax,%rdi
    2ff9:	48 8b 40 68          	mov    0x68(%rax),%rax
    2ffd:	48 b9 08 2a 00 00 00 	movabs $0x2a08,%rcx
    3004:	00 00 00 
    3007:	48 8b 04 c8          	mov    (%rax,%rcx,8),%rax
    300b:	ff d0                	call   *%rax
    300d:	48 89 c7             	mov    %rax,%rdi
    3010:	48 31 ff             	xor    %rdi,%rdi
    3013:	48 8b 7d b8          	mov    -0x48(%rbp),%rdi
    3017:	48 81 ff 00 00 00 00 	cmp    $0x0,%rdi
    301e:	0f 84 08 00 00 00    	je     0x302c
    3024:	48 ff 47 20          	incq   0x20(%rdi)
    3028:	48 ff 47 28          	incq   0x28(%rdi)
    302c:	57                   	push   %rdi
    302d:	48 8b 7d f8          	mov    -0x8(%rbp),%rdi
    3031:	48 be 00 00 00 00 00 	movabs $0x0,%rsi
    3038:	00 00 00 
    303b:	48 b8 71 bf 58 55 55 	movabs $0x55555558bf71,%rax
    3042:	55 00 00 
    3045:	ff d0                	call   *%rax
    3047:	5f                   	pop    %rdi
    3048:	48 c1 e0 30          	shl    $0x30,%rax
    304c:	48 b9 7c 26 00 00 00 	movabs $0x267c,%rcx
    3053:	00 00 00 
    3056:	48 09 c8             	or     %rcx,%rax
    3059:	48 89 c6             	mov    %rax,%rsi
    305c:	48 89 f9             	mov    %rdi,%rcx
    305f:	48 ff 49 20          	decq   0x20(%rcx)
    3063:	48 ff 49 28          	decq   0x28(%rcx)
    3067:	48 8b 51 18          	mov    0x18(%rcx),%rdx
    306b:	48 81 c2 18 00 00 00 	add    $0x18,%rdx
    3072:	48 89 32             	mov    %rsi,(%rdx)
    3075:	48 8b 7d b8          	mov    -0x48(%rbp),%rdi
    3079:	48 81 ff 00 00 00 00 	cmp    $0x0,%rdi
    3080:	0f 84 08 00 00 00    	je     0x308e
    3086:	48 ff 47 20          	incq   0x20(%rdi)
    308a:	48 ff 47 28          	incq   0x28(%rdi)
    308e:	57                   	push   %rdi
    308f:	48 8b 7d f8          	mov    -0x8(%rbp),%rdi
    3093:	48 be 00 00 00 00 00 	movabs $0x0,%rsi
    309a:	00 00 00 
    309d:	48 b8 71 bf 58 55 55 	movabs $0x55555558bf71,%rax
    30a4:	55 00 00 
    30a7:	ff d0                	call   *%rax
    30a9:	5f                   	pop    %rdi
    30aa:	48 c1 e0 30          	shl    $0x30,%rax
    30ae:	48 b9 4c 27 00 00 00 	movabs $0x274c,%rcx
    30b5:	00 00 00 
    30b8:	48 09 c8             	or     %rcx,%rax
    30bb:	48 89 c6             	mov    %rax,%rsi
    30be:	48 89 f9             	mov    %rdi,%rcx
    30c1:	48 ff 49 20          	decq   0x20(%rcx)
    30c5:	48 ff 49 28          	decq   0x28(%rcx)
    30c9:	48 8b 51 18          	mov    0x18(%rcx),%rdx
    30cd:	48 81 c2 30 00 00 00 	add    $0x30,%rdx
    30d4:	48 89 32             	mov    %rsi,(%rdx)
    30d7:	48 8b 7d b8          	mov    -0x48(%rbp),%rdi
    30db:	48 81 ff 00 00 00 00 	cmp    $0x0,%rdi
    30e2:	0f 84 08 00 00 00    	je     0x30f0
    30e8:	48 ff 47 20          	incq   0x20(%rdi)
    30ec:	48 ff 47 28          	incq   0x28(%rdi)
    30f0:	57                   	push   %rdi
    30f1:	48 8b 7d f8          	mov    -0x8(%rbp),%rdi
    30f5:	48 be 00 00 00 00 00 	movabs $0x0,%rsi
    30fc:	00 00 00 
    30ff:	48 b8 71 bf 58 55 55 	movabs $0x55555558bf71,%rax
    3106:	55 00 00 
    3109:	ff d0                	call   *%rax
    310b:	5f                   	pop    %rdi
    310c:	48 c1 e0 30          	shl    $0x30,%rax
    3110:	48 b9 d4 27 00 00 00 	movabs $0x27d4,%rcx
    3117:	00 00 00 
    311a:	48 09 c8             	or     %rcx,%rax
    311d:	48 89 c6             	mov    %rax,%rsi
    3120:	48 89 f9             	mov    %rdi,%rcx
    3123:	48 ff 49 20          	decq   0x20(%rcx)
    3127:	48 ff 49 28          	decq   0x28(%rcx)
    312b:	48 8b 51 18          	mov    0x18(%rcx),%rdx
    312f:	48 81 c2 20 00 00 00 	add    $0x20,%rdx
    3136:	48 89 32             	mov    %rsi,(%rdx)
    3139:	48 8b 7d b8          	mov    -0x48(%rbp),%rdi
    313d:	48 81 ff 00 00 00 00 	cmp    $0x0,%rdi
    3144:	0f 84 08 00 00 00    	je     0x3152
    314a:	48 ff 47 20          	incq   0x20(%rdi)
    314e:	48 ff 47 28          	incq   0x28(%rdi)
    3152:	57                   	push   %rdi
    3153:	48 8b 7d f8          	mov    -0x8(%rbp),%rdi
    3157:	48 be 00 00 00 00 00 	movabs $0x0,%rsi
    315e:	00 00 00 
    3161:	48 b8 71 bf 58 55 55 	movabs $0x55555558bf71,%rax
    3168:	55 00 00 
    316b:	ff d0                	call   *%rax
    316d:	5f                   	pop    %rdi
    316e:	48 c1 e0 30          	shl    $0x30,%rax
    3172:	48 b9 94 28 00 00 00 	movabs $0x2894,%rcx
    3179:	00 00 00 
    317c:	48 09 c8             	or     %rcx,%rax
    317f:	48 89 c6             	mov    %rax,%rsi
    3182:	48 89 f9             	mov    %rdi,%rcx
    3185:	48 ff 49 20          	decq   0x20(%rcx)
    3189:	48 ff 49 28          	decq   0x28(%rcx)
    318d:	48 8b 51 18          	mov    0x18(%rcx),%rdx
    3191:	48 81 c2 38 00 00 00 	add    $0x38,%rdx
    3198:	48 89 32             	mov    %rsi,(%rdx)
    319b:	48 31 ff             	xor    %rdi,%rdi
    319e:	48 8b 4d b8          	mov    -0x48(%rbp),%rcx
    31a2:	48 31 d2             	xor    %rdx,%rdx
    31a5:	48 39 d1             	cmp    %rdx,%rcx
    31a8:	0f 84 23 00 00 00    	je     0x31d1
    31ae:	48 ff 49 20          	decq   0x20(%rcx)
    31b2:	48 ff 49 28          	decq   0x28(%rcx)
    31b6:	48 39 51 20          	cmp    %rdx,0x20(%rcx)
    31ba:	0f 85 11 00 00 00    	jne    0x31d1
    31c0:	57                   	push   %rdi
    31c1:	48 b8 7f 95 58 55 55 	movabs $0x55555558957f,%rax
    31c8:	55 00 00 
    31cb:	48 89 cf             	mov    %rcx,%rdi
    31ce:	ff d0                	call   *%rax
    31d0:	5f                   	pop    %rdi
    31d1:	48 89 7d b8          	mov    %rdi,-0x48(%rbp)
    31d5:	48 31 ff             	xor    %rdi,%rdi
    31d8:	48 31 c0             	xor    %rax,%rax
    31db:	c9                   	leave  
    31dc:	c3                   	ret    
    31dd:	55                   	push   %rbp
    31de:	48 89 e5             	mov    %rsp,%rbp
    31e1:	48 81 ec 58 00 00 00 	sub    $0x58,%rsp
    31e8:	48 89 7d f8          	mov    %rdi,-0x8(%rbp)
    31ec:	48 b8 00 5d 69 55 55 	movabs $0x555555695d00,%rax
    31f3:	55 00 00 
    31f6:	48 8b 00             	mov    (%rax),%rax
    31f9:	48 89 45 f0          	mov    %rax,-0x10(%rbp)
    31fd:	48 31 c0             	xor    %rax,%rax
    3200:	48 89 45 b8          	mov    %rax,-0x48(%rbp)
    3204:	48 89 45 b0          	mov    %rax,-0x50(%rbp)
    3208:	48 89 45 a8          	mov    %rax,-0x58(%rbp)
    320c:	48 b8 80 5c 69 55 55 	movabs $0x555555695c80,%rax
    3213:	55 00 00 
    3216:	48 8b 48 00          	mov    0x0(%rax),%rcx
    321a:	48 89 4d b8          	mov    %rcx,-0x48(%rbp)
    321e:	48 8b 48 08          	mov    0x8(%rax),%rcx
    3222:	48 89 4d b0          	mov    %rcx,-0x50(%rbp)
    3226:	48 8b 48 10          	mov    0x10(%rax),%rcx
    322a:	48 89 4d a8          	mov    %rcx,-0x58(%rbp)
    322e:	48 8b 7d b8          	mov    -0x48(%rbp),%rdi
    3232:	48 81 ff 00 00 00 00 	cmp    $0x0,%rdi
    3239:	0f 84 08 00 00 00    	je     0x3247
    323f:	48 ff 47 20          	incq   0x20(%rdi)
    3243:	48 ff 47 28          	incq   0x28(%rdi)
    3247:	48 31 f6             	xor    %rsi,%rsi
    324a:	40 8a 75 f0          	mov    -0x10(%rbp),%sil
    324e:	48 89 f9             	mov    %rdi,%rcx
    3251:	48 ff 49 20          	decq   0x20(%rcx)
    3255:	48 ff 49 28          	decq   0x28(%rcx)
    3259:	48 8b 51 18          	mov    0x18(%rcx),%rdx
    325d:	48 81 c2 48 00 00 00 	add    $0x48,%rdx
    3264:	40 88 32             	mov    %sil,(%rdx)
    3267:	48 31 ff             	xor    %rdi,%rdi
    326a:	40 8a 7d f0          	mov    -0x10(%rbp),%dil
    326e:	48 b8 00 5d 69 55 55 	movabs $0x555555695d00,%rax
    3275:	55 00 00 
    3278:	40 88 78 00          	mov    %dil,0x0(%rax)
    327c:	48 8b 7d b8          	mov    -0x48(%rbp),%rdi
    3280:	48 81 ff 00 00 00 00 	cmp    $0x0,%rdi
    3287:	0f 84 08 00 00 00    	je     0x3295
    328d:	48 ff 47 20          	incq   0x20(%rdi)
    3291:	48 ff 47 28          	incq   0x28(%rdi)
    3295:	48 b8 80 5c 69 55 55 	movabs $0x555555695c80,%rax
    329c:	55 00 00 
    329f:	48 89 78 00          	mov    %rdi,0x0(%rax)
    32a3:	48 8b 4d f8          	mov    -0x8(%rbp),%rcx
    32a7:	48 8b 51 10          	mov    0x10(%rcx),%rdx
    32ab:	48 8b 42 00          	mov    0x0(%rdx),%rax
    32af:	48 89 c7             	mov    %rax,%rdi
    32b2:	48 8b 40 68          	mov    0x68(%rax),%rax
    32b6:	48 b9 08 2a 00 00 00 	movabs $0x2a08,%rcx
    32bd:	00 00 00 
    32c0:	48 8b 04 c8          	mov    (%rax,%rcx,8),%rax
    32c4:	ff d0                	call   *%rax
    32c6:	48 89 c7             	mov    %rax,%rdi
    32c9:	48 31 ff             	xor    %rdi,%rdi
    32cc:	48 8b 7d b8          	mov    -0x48(%rbp),%rdi
    32d0:	48 81 ff 00 00 00 00 	cmp    $0x0,%rdi
    32d7:	0f 84 08 00 00 00    	je     0x32e5
    32dd:	48 ff 47 20          	incq   0x20(%rdi)
    32e1:	48 ff 47 28          	incq   0x28(%rdi)
    32e5:	57                   	push   %rdi
    32e6:	48 8b 7d f8          	mov    -0x8(%rbp),%rdi
    32ea:	48 be 00 00 00 00 00 	movabs $0x0,%rsi
    32f1:	00 00 00 
    32f4:	48 b8 71 bf 58 55 55 	movabs $0x55555558bf71,%rax
    32fb:	55 00 00 
    32fe:	ff d0                	call   *%rax
    3300:	5f                   	pop    %rdi
    3301:	48 c1 e0 30          	shl    $0x30,%rax
    3305:	48 b9 7c 26 00 00 00 	movabs $0x267c,%rcx
    330c:	00 00 00 
    330f:	48 09 c8             	or     %rcx,%rax
    3312:	48 89 c6             	mov    %rax,%rsi
    3315:	48 89 f9             	mov    %rdi,%rcx
    3318:	48 ff 49 20          	decq   0x20(%rcx)
    331c:	48 ff 49 28          	decq   0x28(%rcx)
    3320:	48 8b 51 18          	mov    0x18(%rcx),%rdx
    3324:	48 81 c2 18 00 00 00 	add    $0x18,%rdx
    332b:	48 89 32             	mov    %rsi,(%rdx)
    332e:	48 8b 7d b8          	mov    -0x48(%rbp),%rdi
    3332:	48 81 ff 00 00 00 00 	cmp    $0x0,%rdi
    3339:	0f 84 08 00 00 00    	je     0x3347
    333f:	48 ff 47 20          	incq   0x20(%rdi)
    3343:	48 ff 47 28          	incq   0x28(%rdi)
    3347:	57                   	push   %rdi
    3348:	48 8b 7d f8          	mov    -0x8(%rbp),%rdi
    334c:	48 be 00 00 00 00 00 	movabs $0x0,%rsi
    3353:	00 00 00 
    3356:	48 b8 71 bf 58 55 55 	movabs $0x55555558bf71,%rax
    335d:	55 00 00 
    3360:	ff d0                	call   *%rax
    3362:	5f                   	pop    %rdi
    3363:	48 c1 e0 30          	shl    $0x30,%rax
    3367:	48 b9 4c 27 00 00 00 	movabs $0x274c,%rcx
    336e:	00 00 00 
    3371:	48 09 c8             	or     %rcx,%rax
    3374:	48 89 c6             	mov    %rax,%rsi
    3377:	48 89 f9             	mov    %rdi,%rcx
    337a:	48 ff 49 20          	decq   0x20(%rcx)
    337e:	48 ff 49 28          	decq   0x28(%rcx)
    3382:	48 8b 51 18          	mov    0x18(%rcx),%rdx
    3386:	48 81 c2 30 00 00 00 	add    $0x30,%rdx
    338d:	48 89 32             	mov    %rsi,(%rdx)
    3390:	48 8b 7d b8          	mov    -0x48(%rbp),%rdi
    3394:	48 81 ff 00 00 00 00 	cmp    $0x0,%rdi
    339b:	0f 84 08 00 00 00    	je     0x33a9
    33a1:	48 ff 47 20          	incq   0x20(%rdi)
    33a5:	48 ff 47 28          	incq   0x28(%rdi)
    33a9:	57                   	push   %rdi
    33aa:	48 8b 7d f8          	mov    -0x8(%rbp),%rdi
    33ae:	48 be 00 00 00 00 00 	movabs $0x0,%rsi
    33b5:	00 00 00 
    33b8:	48 b8 71 bf 58 55 55 	movabs $0x55555558bf71,%rax
    33bf:	55 00 00 
    33c2:	ff d0                	call   *%rax
    33c4:	5f                   	pop    %rdi
    33c5:	48 c1 e0 30          	shl    $0x30,%rax
    33c9:	48 b9 d4 27 00 00 00 	movabs $0x27d4,%rcx
    33d0:	00 00 00 
    33d3:	48 09 c8             	or     %rcx,%rax
    33d6:	48 89 c6             	mov    %rax,%rsi
    33d9:	48 89 f9             	mov    %rdi,%rcx
    33dc:	48 ff 49 20          	decq   0x20(%rcx)
    33e0:	48 ff 49 28          	decq   0x28(%rcx)
    33e4:	48 8b 51 18          	mov    0x18(%rcx),%rdx
    33e8:	48 81 c2 20 00 00 00 	add    $0x20,%rdx
    33ef:	48 89 32             	mov    %rsi,(%rdx)
    33f2:	48 8b 7d b8          	mov    -0x48(%rbp),%rdi
    33f6:	48 81 ff 00 00 00 00 	cmp    $0x0,%rdi
    33fd:	0f 84 08 00 00 00    	je     0x340b
    3403:	48 ff 47 20          	incq   0x20(%rdi)
    3407:	48 ff 47 28          	incq   0x28(%rdi)
    340b:	57                   	push   %rdi
    340c:	48 8b 7d f8          	mov    -0x8(%rbp),%rdi
    3410:	48 be 00 00 00 00 00 	movabs $0x0,%rsi
    3417:	00 00 00 
    341a:	48 b8 71 bf 58 55 55 	movabs $0x55555558bf71,%rax
    3421:	55 00 00 
    3424:	ff d0                	call   *%rax
    3426:	5f                   	pop    %rdi
    3427:	48 c1 e0 30          	shl    $0x30,%rax
    342b:	48 b9 94 28 00 00 00 	movabs $0x2894,%rcx
    3432:	00 00 00 
    3435:	48 09 c8             	or     %rcx,%rax
    3438:	48 89 c6             	mov    %rax,%rsi
    343b:	48 89 f9             	mov    %rdi,%rcx
    343e:	48 ff 49 20          	decq   0x20(%rcx)
    3442:	48 ff 49 28          	decq   0x28(%rcx)
    3446:	48 8b 51 18          	mov    0x18(%rcx),%rdx
    344a:	48 81 c2 38 00 00 00 	add    $0x38,%rdx
    3451:	48 89 32             	mov    %rsi,(%rdx)
    3454:	8b 7d b0             	mov    -0x50(%rbp),%edi
    3457:	ff 4d b0             	decl   -0x50(%rbp)
    345a:	48 81 ff 00 00 00 00 	cmp    $0x0,%rdi
    3461:	0f 84 80 00 00 00    	je     0x34e7
    3467:	48 8b 7d b8          	mov    -0x48(%rbp),%rdi
    346b:	48 81 ff 00 00 00 00 	cmp    $0x0,%rdi
    3472:	0f 84 08 00 00 00    	je     0x3480
    3478:	48 ff 47 20          	incq   0x20(%rdi)
    347c:	48 ff 47 28          	incq   0x28(%rdi)
    3480:	48 8b 75 a8          	mov    -0x58(%rbp),%rsi
    3484:	40 8a 45 f0          	rex mov -0x10(%rbp),%al
    3488:	40 80 f8 0a          	rex cmp $0xa,%al
    348c:	0f 85 15 00 00 00    	jne    0x34a7
    3492:	48 81 fe 00 00 00 00 	cmp    $0x0,%rsi
    3499:	0f 84 08 00 00 00    	je     0x34a7
    349f:	48 ff 46 20          	incq   0x20(%rsi)
    34a3:	48 ff 46 28          	incq   0x28(%rsi)
    34a7:	48 b8 80 5c 69 55 55 	movabs $0x555555695c80,%rax
    34ae:	55 00 00 
    34b1:	48 89 78 00          	mov    %rdi,0x0(%rax)
    34b5:	48 89 70 08          	mov    %rsi,0x8(%rax)
    34b9:	48 8b 4d f8          	mov    -0x8(%rbp),%rcx
    34bd:	48 8b 51 10          	mov    0x10(%rcx),%rdx
    34c1:	48 8b 42 00          	mov    0x0(%rdx),%rax
    34c5:	48 89 c7             	mov    %rax,%rdi
    34c8:	48 8b 40 68          	mov    0x68(%rax),%rax
    34cc:	48 b9 6c 23 00 00 00 	movabs $0x236c,%rcx
    34d3:	00 00 00 
    34d6:	48 8b 04 c8          	mov    (%rax,%rcx,8),%rax
    34da:	ff d0                	call   *%rax
    34dc:	48 89 c7             	mov    %rax,%rdi
    34df:	48 31 ff             	xor    %rdi,%rdi
    34e2:	e9 6d ff ff ff       	jmp    0x3454
    34e7:	48 31 ff             	xor    %rdi,%rdi
    34ea:	48 8b 4d b8          	mov    -0x48(%rbp),%rcx
    34ee:	48 31 d2             	xor    %rdx,%rdx
    34f1:	48 39 d1             	cmp    %rdx,%rcx
    34f4:	0f 84 23 00 00 00    	je     0x351d
    34fa:	48 ff 49 20          	decq   0x20(%rcx)
    34fe:	48 ff 49 28          	decq   0x28(%rcx)
    3502:	48 39 51 20          	cmp    %rdx,0x20(%rcx)
    3506:	0f 85 11 00 00 00    	jne    0x351d
    350c:	57                   	push   %rdi
    350d:	48 b8 7f 95 58 55 55 	movabs $0x55555558957f,%rax
    3514:	55 00 00 
    3517:	48 89 cf             	mov    %rcx,%rdi
    351a:	ff d0                	call   *%rax
    351c:	5f                   	pop    %rdi
    351d:	48 89 7d b8          	mov    %rdi,-0x48(%rbp)
    3521:	48 31 ff             	xor    %rdi,%rdi
    3524:	40 8a 45 f0          	rex mov -0x10(%rbp),%al
    3528:	40 80 f8 0a          	rex cmp $0xa,%al
    352c:	0f 85 19 00 00 00    	jne    0x354b
    3532:	48 8b 4d a8          	mov    -0x58(%rbp),%rcx
    3536:	48 81 f9 00 00 00 00 	cmp    $0x0,%rcx
    353d:	0f 84 08 00 00 00    	je     0x354b
    3543:	48 ff 49 20          	decq   0x20(%rcx)
    3547:	48 ff 49 28          	decq   0x28(%rcx)
    354b:	48 89 7d a8          	mov    %rdi,-0x58(%rbp)
    354f:	40 80 f8 0a          	rex cmp $0xa,%al
    3553:	0f 85 15 00 00 00    	jne    0x356e
    3559:	48 81 ff 00 00 00 00 	cmp    $0x0,%rdi
    3560:	0f 84 08 00 00 00    	je     0x356e
    3566:	48 ff 47 20          	incq   0x20(%rdi)
    356a:	48 ff 47 28          	incq   0x28(%rdi)
    356e:	48 31 ff             	xor    %rdi,%rdi
    3571:	89 7d b0             	mov    %edi,-0x50(%rbp)
    3574:	48 31 ff             	xor    %rdi,%rdi
    3577:	48 31 c0             	xor    %rax,%rax
    357a:	c9                   	leave  
    357b:	c3                   	ret    
    357c:	55                   	push   %rbp
    357d:	48 89 e5             	mov    %rsp,%rbp
    3580:	48 81 ec 68 00 00 00 	sub    $0x68,%rsp
    3587:	48 89 7d f8          	mov    %rdi,-0x8(%rbp)
    358b:	48 b8 00 5d 69 55 55 	movabs $0x555555695d00,%rax
    3592:	55 00 00 
    3595:	48 8b 00             	mov    (%rax),%rax
    3598:	48 89 45 f0          	mov    %rax,-0x10(%rbp)
    359c:	48 31 c0             	xor    %rax,%rax
    359f:	48 89 45 b8          	mov    %rax,-0x48(%rbp)
    35a3:	48 89 45 b0          	mov    %rax,-0x50(%rbp)
    35a7:	48 89 45 a8          	mov    %rax,-0x58(%rbp)
    35ab:	48 89 45 a0          	mov    %rax,-0x60(%rbp)
    35af:	48 89 45 98          	mov    %rax,-0x68(%rbp)
    35b3:	48 b8 80 5c 69 55 55 	movabs $0x555555695c80,%rax
    35ba:	55 00 00 
    35bd:	48 8b 48 00          	mov    0x0(%rax),%rcx
    35c1:	48 89 4d b8          	mov    %rcx,-0x48(%rbp)
    35c5:	48 8b 48 08          	mov    0x8(%rax),%rcx
    35c9:	48 89 4d b0          	mov    %rcx,-0x50(%rbp)
    35cd:	48 8b 45 b8          	mov    -0x48(%rbp),%rax
    35d1:	48 8b 40 18          	mov    0x18(%rax),%rax
    35d5:	48 8b 48 48          	mov    0x48(%rax),%rcx
    35d9:	48 89 4d f0          	mov    %rcx,-0x10(%rbp)
    35dd:	48 8b 7d b8          	mov    -0x48(%rbp),%rdi
    35e1:	48 81 ff 00 00 00 00 	cmp    $0x0,%rdi
    35e8:	0f 84 08 00 00 00    	je     0x35f6
    35ee:	48 ff 47 20          	incq   0x20(%rdi)
    35f2:	48 ff 47 28          	incq   0x28(%rdi)
    35f6:	48 89 f9             	mov    %rdi,%rcx
    35f9:	48 ff 49 20          	decq   0x20(%rcx)
    35fd:	48 ff 49 28          	decq   0x28(%rcx)
    3601:	48 8b 51 18          	mov    0x18(%rcx),%rdx
    3605:	48 81 c2 58 00 00 00 	add    $0x58,%rdx
    360c:	48 31 ff             	xor    %rdi,%rdi
    360f:	8b 3a                	mov    (%rdx),%edi
    3611:	48 8b 75 b8          	mov    -0x48(%rbp),%rsi
    3615:	48 81 fe 00 00 00 00 	cmp    $0x0,%rsi
    361c:	0f 84 08 00 00 00    	je     0x362a
    3622:	48 ff 46 20          	incq   0x20(%rsi)
    3626:	48 ff 46 28          	incq   0x28(%rsi)
    362a:	48 89 f1             	mov    %rsi,%rcx
    362d:	48 ff 49 20          	decq   0x20(%rcx)
    3631:	48 ff 49 28          	decq   0x28(%rcx)
    3635:	48 8b 51 18          	mov    0x18(%rcx),%rdx
    3639:	48 81 c2 5c 00 00 00 	add    $0x5c,%rdx
    3640:	48 31 f6             	xor    %rsi,%rsi
    3643:	8b 32                	mov    (%rdx),%esi
    3645:	39 f7                	cmp    %esi,%edi
    3647:	0f 84 08 00 00 00    	je     0x3655
    364d:	48 31 ff             	xor    %rdi,%rdi
    3650:	e9 0a 00 00 00       	jmp    0x365f
    3655:	48 bf 01 00 00 00 00 	movabs $0x1,%rdi
    365c:	00 00 00 
    365f:	48 81 ff 00 00 00 00 	cmp    $0x0,%rdi
    3666:	0f 84 8d 03 00 00    	je     0x39f9
    366c:	48 8b 7d b8          	mov    -0x48(%rbp),%rdi
    3670:	48 81 ff 00 00 00 00 	cmp    $0x0,%rdi
    3677:	0f 84 08 00 00 00    	je     0x3685
    367d:	48 ff 47 20          	incq   0x20(%rdi)
    3681:	48 ff 47 28          	incq   0x28(%rdi)
    3685:	48 89 f9             	mov    %rdi,%rcx
    3688:	48 ff 49 20          	decq   0x20(%rcx)
    368c:	48 ff 49 28          	decq   0x28(%rcx)
    3690:	48 8b 51 18          	mov    0x18(%rcx),%rdx
    3694:	48 81 c2 5c 00 00 00 	add    $0x5c,%rdx
    369b:	48 31 ff             	xor    %rdi,%rdi
    369e:	8b 3a                	mov    (%rdx),%edi
    36a0:	89 7d a8             	mov    %edi,-0x58(%rbp)
    36a3:	48 8b 7d b8          	mov    -0x48(%rbp),%rdi
    36a7:	48 81 ff 00 00 00 00 	cmp    $0x0,%rdi
    36ae:	0f 84 08 00 00 00    	je     0x36bc
    36b4:	48 ff 47 20          	incq   0x20(%rdi)
    36b8:	48 ff 47 28          	incq   0x28(%rdi)
    36bc:	48 89 f9             	mov    %rdi,%rcx
    36bf:	48 ff 49 20          	decq   0x20(%rcx)
    36c3:	48 ff 49 28          	decq   0x28(%rcx)
    36c7:	48 8b 51 18          	mov    0x18(%rcx),%rdx
    36cb:	48 81 c2 5c 00 00 00 	add    $0x5c,%rdx
    36d2:	48 31 ff             	xor    %rdi,%rdi
    36d5:	8b 3a                	mov    (%rdx),%edi
    36d7:	48 31 f6             	xor    %rsi,%rsi
    36da:	39 f7                	cmp    %esi,%edi
    36dc:	0f 84 08 00 00 00    	je     0x36ea
    36e2:	48 31 ff             	xor    %rdi,%rdi
    36e5:	e9 0a 00 00 00       	jmp    0x36f4
    36ea:	48 bf 01 00 00 00 00 	movabs $0x1,%rdi
    36f1:	00 00 00 
    36f4:	48 81 ff 00 00 00 00 	cmp    $0x0,%rdi
    36fb:	0f 84 12 00 00 00    	je     0x3713
    3701:	48 bf 01 00 00 00 00 	movabs $0x1,%rdi
    3708:	00 00 00 
    370b:	89 7d a8             	mov    %edi,-0x58(%rbp)
    370e:	e9 13 00 00 00       	jmp    0x3726
    3713:	48 bf 01 00 00 00 00 	movabs $0x1,%rdi
    371a:	00 00 00 
    371d:	48 89 f9             	mov    %rdi,%rcx
    3720:	d3 a5 a8 ff ff ff    	shll   %cl,-0x58(%rbp)
    3726:	48 31 c9             	xor    %rcx,%rcx
    3729:	40 8a 4d f0          	rex mov -0x10(%rbp),%cl
    372d:	48 b8 40 31 59 55 55 	movabs $0x555555593140,%rax
    3734:	55 00 00 
    3737:	48 8b 3c c8          	mov    (%rax,%rcx,8),%rdi
    373b:	48 8b 75 a8          	mov    -0x58(%rbp),%rsi
    373f:	48 89 f8             	mov    %rdi,%rax
    3742:	48 f7 e6             	mul    %rsi
    3745:	48 89 c6             	mov    %rax,%rsi
    3748:	57                   	push   %rdi
    3749:	48 81 c0 08 00 00 00 	add    $0x8,%rax
    3750:	48 89 c7             	mov    %rax,%rdi
    3753:	48 b8 46 92 58 55 55 	movabs $0x555555589246,%rax
    375a:	55 00 00 
    375d:	ff d0                	call   *%rax
    375f:	5f                   	pop    %rdi
    3760:	48 8b 48 18          	mov    0x18(%rax),%rcx
    3764:	48 89 79 00          	mov    %rdi,0x0(%rcx)
    3768:	48 89 c7             	mov    %rax,%rdi
    376b:	48 8b 4d a0          	mov    -0x60(%rbp),%rcx
    376f:	48 31 d2             	xor    %rdx,%rdx
    3772:	48 39 d1             	cmp    %rdx,%rcx
    3775:	0f 84 23 00 00 00    	je     0x379e
    377b:	48 ff 49 20          	decq   0x20(%rcx)
    377f:	48 ff 49 28          	decq   0x28(%rcx)
    3783:	48 39 51 20          	cmp    %rdx,0x20(%rcx)
    3787:	0f 85 11 00 00 00    	jne    0x379e
    378d:	57                   	push   %rdi
    378e:	48 b8 7f 95 58 55 55 	movabs $0x55555558957f,%rax
    3795:	55 00 00 
    3798:	48 89 cf             	mov    %rcx,%rdi
    379b:	ff d0                	call   *%rax
    379d:	5f                   	pop    %rdi
    379e:	48 89 7d a0          	mov    %rdi,-0x60(%rbp)
    37a2:	48 31 ff             	xor    %rdi,%rdi
    37a5:	89 7d 98             	mov    %edi,-0x68(%rbp)
    37a8:	48 8b 7d 98          	mov    -0x68(%rbp),%rdi
    37ac:	48 8b 75 b8          	mov    -0x48(%rbp),%rsi
    37b0:	48 81 fe 00 00 00 00 	cmp    $0x0,%rsi
    37b7:	0f 84 08 00 00 00    	je     0x37c5
    37bd:	48 ff 46 20          	incq   0x20(%rsi)
    37c1:	48 ff 46 28          	incq   0x28(%rsi)
    37c5:	48 89 f1             	mov    %rsi,%rcx
    37c8:	48 ff 49 20          	decq   0x20(%rcx)
    37cc:	48 ff 49 28          	decq   0x28(%rcx)
    37d0:	48 8b 51 18          	mov    0x18(%rcx),%rdx
    37d4:	48 81 c2 5c 00 00 00 	add    $0x5c,%rdx
    37db:	48 31 f6             	xor    %rsi,%rsi
    37de:	8b 32                	mov    (%rdx),%esi
    37e0:	39 f7                	cmp    %esi,%edi
    37e2:	0f 82 08 00 00 00    	jb     0x37f0
    37e8:	48 31 ff             	xor    %rdi,%rdi
    37eb:	e9 0a 00 00 00       	jmp    0x37fa
    37f0:	48 bf 01 00 00 00 00 	movabs $0x1,%rdi
    37f7:	00 00 00 
    37fa:	48 81 ff 00 00 00 00 	cmp    $0x0,%rdi
    3801:	0f 84 ee 00 00 00    	je     0x38f5
    3807:	48 8b 7d a0          	mov    -0x60(%rbp),%rdi
    380b:	48 81 ff 00 00 00 00 	cmp    $0x0,%rdi
    3812:	0f 84 08 00 00 00    	je     0x3820
    3818:	48 ff 47 20          	incq   0x20(%rdi)
    381c:	48 ff 47 28          	incq   0x28(%rdi)
    3820:	48 8b 75 98          	mov    -0x68(%rbp),%rsi
    3824:	4c 8b 45 b8          	mov    -0x48(%rbp),%r8
    3828:	49 81 f8 00 00 00 00 	cmp    $0x0,%r8
    382f:	0f 84 08 00 00 00    	je     0x383d
    3835:	49 ff 40 20          	incq   0x20(%r8)
    3839:	49 ff 40 28          	incq   0x28(%r8)
    383d:	4c 89 c1             	mov    %r8,%rcx
    3840:	48 ff 49 20          	decq   0x20(%rcx)
    3844:	48 ff 49 28          	decq   0x28(%rcx)
    3848:	48 8b 51 18          	mov    0x18(%rcx),%rdx
    384c:	48 81 c2 50 00 00 00 	add    $0x50,%rdx
    3853:	4c 8b 02             	mov    (%rdx),%r8
    3856:	49 81 f8 00 00 00 00 	cmp    $0x0,%r8
    385d:	0f 84 08 00 00 00    	je     0x386b
    3863:	49 ff 40 20          	incq   0x20(%r8)
    3867:	49 ff 40 28          	incq   0x28(%r8)
    386b:	4c 8b 4d 98          	mov    -0x68(%rbp),%r9
    386f:	57                   	push   %rdi
    3870:	56                   	push   %rsi
    3871:	4c 89 c0             	mov    %r8,%rax
    3874:	50                   	push   %rax
    3875:	48 8b 48 18          	mov    0x18(%rax),%rcx
    3879:	48 bb 08 00 00 00 00 	movabs $0x8,%rbx
    3880:	00 00 00 
    3883:	48 8b 41 00          	mov    0x0(%rcx),%rax
    3887:	49 f7 e1             	mul    %r9
    388a:	48 01 c3             	add    %rax,%rbx
    388d:	5f                   	pop    %rdi
    388e:	48 89 de             	mov    %rbx,%rsi
    3891:	48 31 c9             	xor    %rcx,%rcx
    3894:	40 8a 4d f0          	rex mov -0x10(%rbp),%cl
    3898:	48 b8 20 30 59 55 55 	movabs $0x555555593020,%rax
    389f:	55 00 00 
    38a2:	48 8b 04 c8          	mov    (%rax,%rcx,8),%rax
    38a6:	ff d0                	call   *%rax
    38a8:	5e                   	pop    %rsi
    38a9:	5f                   	pop    %rdi
    38aa:	49 89 c0             	mov    %rax,%r8
    38ad:	48 89 f8             	mov    %rdi,%rax
    38b0:	50                   	push   %rax
    38b1:	48 8b 48 18          	mov    0x18(%rax),%rcx
    38b5:	48 bb 08 00 00 00 00 	movabs $0x8,%rbx
    38bc:	00 00 00 
    38bf:	48 8b 41 00          	mov    0x0(%rcx),%rax
    38c3:	48 f7 e6             	mul    %rsi
    38c6:	48 01 c3             	add    %rax,%rbx
    38c9:	4c 89 c2             	mov    %r8,%rdx
    38cc:	48 89 de             	mov    %rbx,%rsi
    38cf:	5f                   	pop    %rdi
    38d0:	48 31 c9             	xor    %rcx,%rcx
    38d3:	40 8a 4d f0          	rex mov -0x10(%rbp),%cl
    38d7:	48 b8 80 30 59 55 55 	movabs $0x555555593080,%rax
    38de:	55 00 00 
    38e1:	48 8b 04 c8          	mov    (%rax,%rcx,8),%rax
    38e5:	ff d0                	call   *%rax
    38e7:	8b 7d 98             	mov    -0x68(%rbp),%edi
    38ea:	ff 45 98             	incl   -0x68(%rbp)
    38ed:	48 31 ff             	xor    %rdi,%rdi
    38f0:	e9 b3 fe ff ff       	jmp    0x37a8
    38f5:	48 31 ff             	xor    %rdi,%rdi
    38f8:	89 7d 98             	mov    %edi,-0x68(%rbp)
    38fb:	48 8b 7d b8          	mov    -0x48(%rbp),%rdi
    38ff:	48 81 ff 00 00 00 00 	cmp    $0x0,%rdi
    3906:	0f 84 08 00 00 00    	je     0x3914
    390c:	48 ff 47 20          	incq   0x20(%rdi)
    3910:	48 ff 47 28          	incq   0x28(%rdi)
    3914:	48 8b 75 a0          	mov    -0x60(%rbp),%rsi
    3918:	48 81 fe 00 00 00 00 	cmp    $0x0,%rsi
    391f:	0f 84 08 00 00 00    	je     0x392d
    3925:	48 ff 46 20          	incq   0x20(%rsi)
    3929:	48 ff 46 28          	incq   0x28(%rsi)
    392d:	48 89 f9             	mov    %rdi,%rcx
    3930:	48 ff 49 20          	decq   0x20(%rcx)
    3934:	48 ff 49 28          	decq   0x28(%rcx)
    3938:	48 8b 51 18          	mov    0x18(%rcx),%rdx
    393c:	48 81 c2 50 00 00 00 	add    $0x50,%rdx
    3943:	51                   	push   %rcx
    3944:	52                   	push   %rdx
    3945:	57                   	push   %rdi
    3946:	56                   	push   %rsi
    3947:	48 89 cf             	mov    %rcx,%rdi
    394a:	48 8b 32             	mov    (%rdx),%rsi
    394d:	48 b8 a2 bd 58 55 55 	movabs $0x55555558bda2,%rax
    3954:	55 00 00 
    3957:	ff d0                	call   *%rax
    3959:	5e                   	pop    %rsi
    395a:	5f                   	pop    %rdi
    395b:	5a                   	pop    %rdx
    395c:	59                   	pop    %rcx
    395d:	48 89 32             	mov    %rsi,(%rdx)
    3960:	48 89 f0             	mov    %rsi,%rax
    3963:	48 89 cf             	mov    %rcx,%rdi
    3966:	48 8b 32             	mov    (%rdx),%rsi
    3969:	48 ba 50 00 00 00 00 	movabs $0x50,%rdx
    3970:	00 00 00 
    3973:	48 b8 15 be 58 55 55 	movabs $0x55555558be15,%rax
    397a:	55 00 00 
    397d:	ff d0                	call   *%rax
    397f:	48 8b 7d b8          	mov    -0x48(%rbp),%rdi
    3983:	48 81 ff 00 00 00 00 	cmp    $0x0,%rdi
    398a:	0f 84 08 00 00 00    	je     0x3998
    3990:	48 ff 47 20          	incq   0x20(%rdi)
    3994:	48 ff 47 28          	incq   0x28(%rdi)
    3998:	48 8b 75 a8          	mov    -0x58(%rbp),%rsi
    399c:	48 89 f9             	mov    %rdi,%rcx
    399f:	48 ff 49 20          	decq   0x20(%rcx)
    39a3:	48 ff 49 28          	decq   0x28(%rcx)
    39a7:	48 8b 51 18          	mov    0x18(%rcx),%rdx
    39ab:	48 81 c2 5c 00 00 00 	add    $0x5c,%rdx
    39b2:	89 32                	mov    %esi,(%rdx)
    39b4:	48 31 ff             	xor    %rdi,%rdi
    39b7:	89 7d a8             	mov    %edi,-0x58(%rbp)
    39ba:	48 31 ff             	xor    %rdi,%rdi
    39bd:	48 8b 4d a0          	mov    -0x60(%rbp),%rcx
    39c1:	48 31 d2             	xor    %rdx,%rdx
    39c4:	48 39 d1             	cmp    %rdx,%rcx
    39c7:	0f 84 23 00 00 00    	je     0x39f0
    39cd:	48 ff 49 20          	decq   0x20(%rcx)
    39d1:	48 ff 49 28          	decq   0x28(%rcx)
    39d5:	48 39 51 20          	cmp    %rdx,0x20(%rcx)
    39d9:	0f 85 11 00 00 00    	jne    0x39f0
    39df:	57                   	push   %rdi
    39e0:	48 b8 7f 95 58 55 55 	movabs $0x55555558957f,%rax
    39e7:	55 00 00 
    39ea:	48 89 cf             	mov    %rcx,%rdi
    39ed:	ff d0                	call   *%rax
    39ef:	5f                   	pop    %rdi
    39f0:	48 89 7d a0          	mov    %rdi,-0x60(%rbp)
    39f4:	e9 00 00 00 00       	jmp    0x39f9
    39f9:	48 8b 7d b8          	mov    -0x48(%rbp),%rdi
    39fd:	48 81 ff 00 00 00 00 	cmp    $0x0,%rdi
    3a04:	0f 84 08 00 00 00    	je     0x3a12
    3a0a:	48 ff 47 20          	incq   0x20(%rdi)
    3a0e:	48 ff 47 28          	incq   0x28(%rdi)
    3a12:	48 89 f9             	mov    %rdi,%rcx
    3a15:	48 ff 49 20          	decq   0x20(%rcx)
    3a19:	48 ff 49 28          	decq   0x28(%rcx)
    3a1d:	48 8b 51 18          	mov    0x18(%rcx),%rdx
    3a21:	48 81 c2 50 00 00 00 	add    $0x50,%rdx
    3a28:	48 8b 3a             	mov    (%rdx),%rdi
    3a2b:	48 81 ff 00 00 00 00 	cmp    $0x0,%rdi
    3a32:	0f 84 08 00 00 00    	je     0x3a40
    3a38:	48 ff 47 20          	incq   0x20(%rdi)
    3a3c:	48 ff 47 28          	incq   0x28(%rdi)
    3a40:	48 8b 75 b8          	mov    -0x48(%rbp),%rsi
    3a44:	48 81 fe 00 00 00 00 	cmp    $0x0,%rsi
    3a4b:	0f 84 08 00 00 00    	je     0x3a59
    3a51:	48 ff 46 20          	incq   0x20(%rsi)
    3a55:	48 ff 46 28          	incq   0x28(%rsi)
    3a59:	48 89 f0             	mov    %rsi,%rax
    3a5c:	48 ff 48 20          	decq   0x20(%rax)
    3a60:	48 ff 48 28          	decq   0x28(%rax)
    3a64:	48 8b 40 18          	mov    0x18(%rax),%rax
    3a68:	48 81 c0 58 00 00 00 	add    $0x58,%rax
    3a6f:	48 31 f6             	xor    %rsi,%rsi
    3a72:	8b 30                	mov    (%rax),%esi
    3a74:	ff 00                	incl   (%rax)
    3a76:	4c 8b 45 b0          	mov    -0x50(%rbp),%r8
    3a7a:	40 8a 45 f0          	rex mov -0x10(%rbp),%al
    3a7e:	40 80 f8 0a          	rex cmp $0xa,%al
    3a82:	0f 85 15 00 00 00    	jne    0x3a9d
    3a88:	49 81 f8 00 00 00 00 	cmp    $0x0,%r8
    3a8f:	0f 84 08 00 00 00    	je     0x3a9d
    3a95:	49 ff 40 20          	incq   0x20(%r8)
    3a99:	49 ff 40 28          	incq   0x28(%r8)
    3a9d:	48 89 f8             	mov    %rdi,%rax
    3aa0:	50                   	push   %rax
    3aa1:	48 8b 48 18          	mov    0x18(%rax),%rcx
    3aa5:	48 bb 08 00 00 00 00 	movabs $0x8,%rbx
    3aac:	00 00 00 
    3aaf:	48 8b 41 00          	mov    0x0(%rcx),%rax
    3ab3:	48 f7 e6             	mul    %rsi
    3ab6:	48 01 c3             	add    %rax,%rbx
    3ab9:	4c 89 c2             	mov    %r8,%rdx
    3abc:	48 89 de             	mov    %rbx,%rsi
    3abf:	5f                   	pop    %rdi
    3ac0:	48 31 c9             	xor    %rcx,%rcx
    3ac3:	40 8a 4d f0          	rex mov -0x10(%rbp),%cl
    3ac7:	48 b8 80 30 59 55 55 	movabs $0x555555593080,%rax
    3ace:	55 00 00 
    3ad1:	48 8b 04 c8          	mov    (%rax,%rcx,8),%rax
    3ad5:	ff d0                	call   *%rax
    3ad7:	48 31 ff             	xor    %rdi,%rdi
    3ada:	48 8b 4d b8          	mov    -0x48(%rbp),%rcx
    3ade:	48 31 d2             	xor    %rdx,%rdx
    3ae1:	48 39 d1             	cmp    %rdx,%rcx
    3ae4:	0f 84 23 00 00 00    	je     0x3b0d
    3aea:	48 ff 49 20          	decq   0x20(%rcx)
    3aee:	48 ff 49 28          	decq   0x28(%rcx)
    3af2:	48 39 51 20          	cmp    %rdx,0x20(%rcx)
    3af6:	0f 85 11 00 00 00    	jne    0x3b0d
    3afc:	57                   	push   %rdi
    3afd:	48 b8 7f 95 58 55 55 	movabs $0x55555558957f,%rax
    3b04:	55 00 00 
    3b07:	48 89 cf             	mov    %rcx,%rdi
    3b0a:	ff d0                	call   *%rax
    3b0c:	5f                   	pop    %rdi
    3b0d:	48 89 7d b8          	mov    %rdi,-0x48(%rbp)
    3b11:	48 31 ff             	xor    %rdi,%rdi
    3b14:	40 8a 45 f0          	rex mov -0x10(%rbp),%al
    3b18:	40 80 f8 0a          	rex cmp $0xa,%al
    3b1c:	0f 85 19 00 00 00    	jne    0x3b3b
    3b22:	48 8b 4d b0          	mov    -0x50(%rbp),%rcx
    3b26:	48 81 f9 00 00 00 00 	cmp    $0x0,%rcx
    3b2d:	0f 84 08 00 00 00    	je     0x3b3b
    3b33:	48 ff 49 20          	decq   0x20(%rcx)
    3b37:	48 ff 49 28          	decq   0x28(%rcx)
    3b3b:	48 89 7d b0          	mov    %rdi,-0x50(%rbp)
    3b3f:	40 80 f8 0a          	rex cmp $0xa,%al
    3b43:	0f 85 15 00 00 00    	jne    0x3b5e
    3b49:	48 81 ff 00 00 00 00 	cmp    $0x0,%rdi
    3b50:	0f 84 08 00 00 00    	je     0x3b5e
    3b56:	48 ff 47 20          	incq   0x20(%rdi)
    3b5a:	48 ff 47 28          	incq   0x28(%rdi)
    3b5e:	48 31 ff             	xor    %rdi,%rdi
    3b61:	48 31 c0             	xor    %rax,%rax
    3b64:	c9                   	leave  
    3b65:	c3                   	ret    
    3b66:	55                   	push   %rbp
    3b67:	48 89 e5             	mov    %rsp,%rbp
    3b6a:	48 81 ec 50 00 00 00 	sub    $0x50,%rsp
    3b71:	48 89 7d f8          	mov    %rdi,-0x8(%rbp)
    3b75:	48 b8 00 5d 69 55 55 	movabs $0x555555695d00,%rax
    3b7c:	55 00 00 
    3b7f:	48 8b 00             	mov    (%rax),%rax
    3b82:	48 89 45 f0          	mov    %rax,-0x10(%rbp)
    3b86:	48 31 c0             	xor    %rax,%rax
    3b89:	48 89 45 b8          	mov    %rax,-0x48(%rbp)
    3b8d:	48 89 45 b0          	mov    %rax,-0x50(%rbp)
    3b91:	48 b8 80 5c 69 55 55 	movabs $0x555555695c80,%rax
    3b98:	55 00 00 
    3b9b:	48 8b 48 00          	mov    0x0(%rax),%rcx
    3b9f:	48 89 4d b8          	mov    %rcx,-0x48(%rbp)
    3ba3:	48 8b 48 08          	mov    0x8(%rax),%rcx
    3ba7:	48 89 4d b0          	mov    %rcx,-0x50(%rbp)
    3bab:	48 8b 45 b8          	mov    -0x48(%rbp),%rax
    3baf:	48 8b 40 18          	mov    0x18(%rax),%rax
    3bb3:	48 8b 48 48          	mov    0x48(%rax),%rcx
    3bb7:	48 89 4d f0          	mov    %rcx,-0x10(%rbp)
    3bbb:	48 8b 7d b8          	mov    -0x48(%rbp),%rdi
    3bbf:	48 81 ff 00 00 00 00 	cmp    $0x0,%rdi
    3bc6:	0f 84 08 00 00 00    	je     0x3bd4
    3bcc:	48 ff 47 20          	incq   0x20(%rdi)
    3bd0:	48 ff 47 28          	incq   0x28(%rdi)
    3bd4:	48 89 f9             	mov    %rdi,%rcx
    3bd7:	48 ff 49 20          	decq   0x20(%rcx)
    3bdb:	48 ff 49 28          	decq   0x28(%rcx)
    3bdf:	48 8b 51 18          	mov    0x18(%rcx),%rdx
    3be3:	48 81 c2 50 00 00 00 	add    $0x50,%rdx
    3bea:	48 8b 3a             	mov    (%rdx),%rdi
    3bed:	48 81 ff 00 00 00 00 	cmp    $0x0,%rdi
    3bf4:	0f 84 08 00 00 00    	je     0x3c02
    3bfa:	48 ff 47 20          	incq   0x20(%rdi)
    3bfe:	48 ff 47 28          	incq   0x28(%rdi)
    3c02:	48 8b 75 b0          	mov    -0x50(%rbp),%rsi
    3c06:	48 89 f8             	mov    %rdi,%rax
    3c09:	50                   	push   %rax
    3c0a:	48 8b 48 18          	mov    0x18(%rax),%rcx
    3c0e:	48 bb 08 00 00 00 00 	movabs $0x8,%rbx
    3c15:	00 00 00 
    3c18:	48 8b 41 00          	mov    0x0(%rcx),%rax
    3c1c:	48 f7 e6             	mul    %rsi
    3c1f:	48 01 c3             	add    %rax,%rbx
    3c22:	5f                   	pop    %rdi
    3c23:	48 89 de             	mov    %rbx,%rsi
    3c26:	48 31 c9             	xor    %rcx,%rcx
    3c29:	40 8a 4d f0          	rex mov -0x10(%rbp),%cl
    3c2d:	48 b8 20 30 59 55 55 	movabs $0x555555593020,%rax
    3c34:	55 00 00 
    3c37:	48 8b 04 c8          	mov    (%rax,%rcx,8),%rax
    3c3b:	ff d0                	call   *%rax
    3c3d:	48 89 c7             	mov    %rax,%rdi
    3c40:	48 31 f6             	xor    %rsi,%rsi
    3c43:	48 8b 4d b8          	mov    -0x48(%rbp),%rcx
    3c47:	48 31 d2             	xor    %rdx,%rdx
    3c4a:	48 39 d1             	cmp    %rdx,%rcx
    3c4d:	0f 84 25 00 00 00    	je     0x3c78
    3c53:	48 ff 49 20          	decq   0x20(%rcx)
    3c57:	48 ff 49 28          	decq   0x28(%rcx)
    3c5b:	48 39 51 20          	cmp    %rdx,0x20(%rcx)
    3c5f:	0f 85 13 00 00 00    	jne    0x3c78
    3c65:	57                   	push   %rdi
    3c66:	56                   	push   %rsi
    3c67:	48 b8 7f 95 58 55 55 	movabs $0x55555558957f,%rax
    3c6e:	55 00 00 
    3c71:	48 89 cf             	mov    %rcx,%rdi
    3c74:	ff d0                	call   *%rax
    3c76:	5e                   	pop    %rsi
    3c77:	5f                   	pop    %rdi
    3c78:	48 89 75 b8          	mov    %rsi,-0x48(%rbp)
    3c7c:	48 31 f6             	xor    %rsi,%rsi
    3c7f:	89 75 b0             	mov    %esi,-0x50(%rbp)
    3c82:	48 89 f8             	mov    %rdi,%rax
    3c85:	c9                   	leave  
    3c86:	c3                   	ret    
    3c87:	48 31 ff             	xor    %rdi,%rdi
    3c8a:	48 8b 4d b8          	mov    -0x48(%rbp),%rcx
    3c8e:	48 31 d2             	xor    %rdx,%rdx
    3c91:	48 39 d1             	cmp    %rdx,%rcx
    3c94:	0f 84 23 00 00 00    	je     0x3cbd
    3c9a:	48 ff 49 20          	decq   0x20(%rcx)
    3c9e:	48 ff 49 28          	decq   0x28(%rcx)
    3ca2:	48 39 51 20          	cmp    %rdx,0x20(%rcx)
    3ca6:	0f 85 11 00 00 00    	jne    0x3cbd
    3cac:	57                   	push   %rdi
    3cad:	48 b8 7f 95 58 55 55 	movabs $0x55555558957f,%rax
    3cb4:	55 00 00 
    3cb7:	48 89 cf             	mov    %rcx,%rdi
    3cba:	ff d0                	call   *%rax
    3cbc:	5f                   	pop    %rdi
    3cbd:	48 89 7d b8          	mov    %rdi,-0x48(%rbp)
    3cc1:	48 31 ff             	xor    %rdi,%rdi
    3cc4:	89 7d b0             	mov    %edi,-0x50(%rbp)
    3cc7:	48 31 ff             	xor    %rdi,%rdi
    3cca:	48 89 f8             	mov    %rdi,%rax
    3ccd:	c9                   	leave  
    3cce:	c3                   	ret    
    3ccf:	55                   	push   %rbp
    3cd0:	48 89 e5             	mov    %rsp,%rbp
    3cd3:	48 81 ec 48 00 00 00 	sub    $0x48,%rsp
    3cda:	48 89 7d f8          	mov    %rdi,-0x8(%rbp)
    3cde:	48 b8 00 5d 69 55 55 	movabs $0x555555695d00,%rax
    3ce5:	55 00 00 
    3ce8:	48 8b 00             	mov    (%rax),%rax
    3ceb:	48 89 45 f0          	mov    %rax,-0x10(%rbp)
    3cef:	48 31 c0             	xor    %rax,%rax
    3cf2:	48 89 45 b8          	mov    %rax,-0x48(%rbp)
    3cf6:	48 b8 80 5c 69 55 55 	movabs $0x555555695c80,%rax
    3cfd:	55 00 00 
    3d00:	48 8b 48 00          	mov    0x0(%rax),%rcx
    3d04:	48 89 4d b8          	mov    %rcx,-0x48(%rbp)
    3d08:	48 8b 45 b8          	mov    -0x48(%rbp),%rax
    3d0c:	48 8b 40 18          	mov    0x18(%rax),%rax
    3d10:	48 8b 48 48          	mov    0x48(%rax),%rcx
    3d14:	48 89 4d f0          	mov    %rcx,-0x10(%rbp)
    3d18:	48 8b 7d b8          	mov    -0x48(%rbp),%rdi
    3d1c:	48 81 ff 00 00 00 00 	cmp    $0x0,%rdi
    3d23:	0f 84 08 00 00 00    	je     0x3d31
    3d29:	48 ff 47 20          	incq   0x20(%rdi)
    3d2d:	48 ff 47 28          	incq   0x28(%rdi)
    3d31:	48 89 f9             	mov    %rdi,%rcx
    3d34:	48 ff 49 20          	decq   0x20(%rcx)
    3d38:	48 ff 49 28          	decq   0x28(%rcx)
    3d3c:	48 8b 51 18          	mov    0x18(%rcx),%rdx
    3d40:	48 81 c2 58 00 00 00 	add    $0x58,%rdx
    3d47:	48 31 ff             	xor    %rdi,%rdi
    3d4a:	8b 3a                	mov    (%rdx),%edi
    3d4c:	48 31 f6             	xor    %rsi,%rsi
    3d4f:	48 8b 4d b8          	mov    -0x48(%rbp),%rcx
    3d53:	48 31 d2             	xor    %rdx,%rdx
    3d56:	48 39 d1             	cmp    %rdx,%rcx
    3d59:	0f 84 25 00 00 00    	je     0x3d84
    3d5f:	48 ff 49 20          	decq   0x20(%rcx)
    3d63:	48 ff 49 28          	decq   0x28(%rcx)
    3d67:	48 39 51 20          	cmp    %rdx,0x20(%rcx)
    3d6b:	0f 85 13 00 00 00    	jne    0x3d84
    3d71:	57                   	push   %rdi
    3d72:	56                   	push   %rsi
    3d73:	48 b8 7f 95 58 55 55 	movabs $0x55555558957f,%rax
    3d7a:	55 00 00 
    3d7d:	48 89 cf             	mov    %rcx,%rdi
    3d80:	ff d0                	call   *%rax
    3d82:	5e                   	pop    %rsi
    3d83:	5f                   	pop    %rdi
    3d84:	48 89 75 b8          	mov    %rsi,-0x48(%rbp)
    3d88:	48 89 f8             	mov    %rdi,%rax
    3d8b:	c9                   	leave  
    3d8c:	c3                   	ret    
    3d8d:	48 31 ff             	xor    %rdi,%rdi
    3d90:	48 8b 4d b8          	mov    -0x48(%rbp),%rcx
    3d94:	48 31 d2             	xor    %rdx,%rdx
    3d97:	48 39 d1             	cmp    %rdx,%rcx
    3d9a:	0f 84 23 00 00 00    	je     0x3dc3
    3da0:	48 ff 49 20          	decq   0x20(%rcx)
    3da4:	48 ff 49 28          	decq   0x28(%rcx)
    3da8:	48 39 51 20          	cmp    %rdx,0x20(%rcx)
    3dac:	0f 85 11 00 00 00    	jne    0x3dc3
    3db2:	57                   	push   %rdi
    3db3:	48 b8 7f 95 58 55 55 	movabs $0x55555558957f,%rax
    3dba:	55 00 00 
    3dbd:	48 89 cf             	mov    %rcx,%rdi
    3dc0:	ff d0                	call   *%rax
    3dc2:	5f                   	pop    %rdi
    3dc3:	48 89 7d b8          	mov    %rdi,-0x48(%rbp)
    3dc7:	48 31 ff             	xor    %rdi,%rdi
    3dca:	48 89 f8             	mov    %rdi,%rax
    3dcd:	c9                   	leave  
    3dce:	c3                   	ret    
    3dcf:	55                   	push   %rbp
    3dd0:	48 89 e5             	mov    %rsp,%rbp
    3dd3:	48 81 ec 58 00 00 00 	sub    $0x58,%rsp
    3dda:	48 89 7d f8          	mov    %rdi,-0x8(%rbp)
    3dde:	48 b8 00 5d 69 55 55 	movabs $0x555555695d00,%rax
    3de5:	55 00 00 
    3de8:	48 8b 00             	mov    (%rax),%rax
    3deb:	48 89 45 f0          	mov    %rax,-0x10(%rbp)
    3def:	48 31 c0             	xor    %rax,%rax
    3df2:	48 89 45 b8          	mov    %rax,-0x48(%rbp)
    3df6:	48 89 45 b0          	mov    %rax,-0x50(%rbp)
    3dfa:	48 89 45 a8          	mov    %rax,-0x58(%rbp)
    3dfe:	48 b8 80 5c 69 55 55 	movabs $0x555555695c80,%rax
    3e05:	55 00 00 
    3e08:	48 8b 48 00          	mov    0x0(%rax),%rcx
    3e0c:	48 89 4d b8          	mov    %rcx,-0x48(%rbp)
    3e10:	48 8b 48 08          	mov    0x8(%rax),%rcx
    3e14:	48 89 4d b0          	mov    %rcx,-0x50(%rbp)
    3e18:	48 8b 48 10          	mov    0x10(%rax),%rcx
    3e1c:	48 89 4d a8          	mov    %rcx,-0x58(%rbp)
    3e20:	48 8b 45 b8          	mov    -0x48(%rbp),%rax
    3e24:	48 8b 40 18          	mov    0x18(%rax),%rax
    3e28:	48 8b 48 48          	mov    0x48(%rax),%rcx
    3e2c:	48 89 4d f0          	mov    %rcx,-0x10(%rbp)
    3e30:	48 8b 7d b8          	mov    -0x48(%rbp),%rdi
    3e34:	48 81 ff 00 00 00 00 	cmp    $0x0,%rdi
    3e3b:	0f 84 08 00 00 00    	je     0x3e49
    3e41:	48 ff 47 20          	incq   0x20(%rdi)
    3e45:	48 ff 47 28          	incq   0x28(%rdi)
    3e49:	48 89 f9             	mov    %rdi,%rcx
    3e4c:	48 ff 49 20          	decq   0x20(%rcx)
    3e50:	48 ff 49 28          	decq   0x28(%rcx)
    3e54:	48 8b 51 18          	mov    0x18(%rcx),%rdx
    3e58:	48 81 c2 50 00 00 00 	add    $0x50,%rdx
    3e5f:	48 8b 3a             	mov    (%rdx),%rdi
    3e62:	48 81 ff 00 00 00 00 	cmp    $0x0,%rdi
    3e69:	0f 84 08 00 00 00    	je     0x3e77
    3e6f:	48 ff 47 20          	incq   0x20(%rdi)
    3e73:	48 ff 47 28          	incq   0x28(%rdi)
    3e77:	48 8b 75 b0          	mov    -0x50(%rbp),%rsi
    3e7b:	4c 8b 45 a8          	mov    -0x58(%rbp),%r8
    3e7f:	40 8a 45 f0          	rex mov -0x10(%rbp),%al
    3e83:	40 80 f8 0a          	rex cmp $0xa,%al
    3e87:	0f 85 15 00 00 00    	jne    0x3ea2
    3e8d:	49 81 f8 00 00 00 00 	cmp    $0x0,%r8
    3e94:	0f 84 08 00 00 00    	je     0x3ea2
    3e9a:	49 ff 40 20          	incq   0x20(%r8)
    3e9e:	49 ff 40 28          	incq   0x28(%r8)
    3ea2:	48 89 f8             	mov    %rdi,%rax
    3ea5:	50                   	push   %rax
    3ea6:	48 8b 48 18          	mov    0x18(%rax),%rcx
    3eaa:	48 bb 08 00 00 00 00 	movabs $0x8,%rbx
    3eb1:	00 00 00 
    3eb4:	48 8b 41 00          	mov    0x0(%rcx),%rax
    3eb8:	48 f7 e6             	mul    %rsi
    3ebb:	48 01 c3             	add    %rax,%rbx
    3ebe:	4c 89 c2             	mov    %r8,%rdx
    3ec1:	48 89 de             	mov    %rbx,%rsi
    3ec4:	5f                   	pop    %rdi
    3ec5:	48 31 c9             	xor    %rcx,%rcx
    3ec8:	40 8a 4d f0          	rex mov -0x10(%rbp),%cl
    3ecc:	48 b8 80 30 59 55 55 	movabs $0x555555593080,%rax
    3ed3:	55 00 00 
    3ed6:	48 8b 04 c8          	mov    (%rax,%rcx,8),%rax
    3eda:	ff d0                	call   *%rax
    3edc:	48 31 ff             	xor    %rdi,%rdi
    3edf:	48 8b 4d b8          	mov    -0x48(%rbp),%rcx
    3ee3:	48 31 d2             	xor    %rdx,%rdx
    3ee6:	48 39 d1             	cmp    %rdx,%rcx
    3ee9:	0f 84 23 00 00 00    	je     0x3f12
    3eef:	48 ff 49 20          	decq   0x20(%rcx)
    3ef3:	48 ff 49 28          	decq   0x28(%rcx)
    3ef7:	48 39 51 20          	cmp    %rdx,0x20(%rcx)
    3efb:	0f 85 11 00 00 00    	jne    0x3f12
    3f01:	57                   	push   %rdi
    3f02:	48 b8 7f 95 58 55 55 	movabs $0x55555558957f,%rax
    3f09:	55 00 00 
    3f0c:	48 89 cf             	mov    %rcx,%rdi
    3f0f:	ff d0                	call   *%rax
    3f11:	5f                   	pop    %rdi
    3f12:	48 89 7d b8          	mov    %rdi,-0x48(%rbp)
    3f16:	48 31 ff             	xor    %rdi,%rdi
    3f19:	40 8a 45 f0          	rex mov -0x10(%rbp),%al
    3f1d:	40 80 f8 0a          	rex cmp $0xa,%al
    3f21:	0f 85 19 00 00 00    	jne    0x3f40
    3f27:	48 8b 4d a8          	mov    -0x58(%rbp),%rcx
    3f2b:	48 81 f9 00 00 00 00 	cmp    $0x0,%rcx
    3f32:	0f 84 08 00 00 00    	je     0x3f40
    3f38:	48 ff 49 20          	decq   0x20(%rcx)
    3f3c:	48 ff 49 28          	decq   0x28(%rcx)
    3f40:	48 89 7d a8          	mov    %rdi,-0x58(%rbp)
    3f44:	40 80 f8 0a          	rex cmp $0xa,%al
    3f48:	0f 85 15 00 00 00    	jne    0x3f63
    3f4e:	48 81 ff 00 00 00 00 	cmp    $0x0,%rdi
    3f55:	0f 84 08 00 00 00    	je     0x3f63
    3f5b:	48 ff 47 20          	incq   0x20(%rdi)
    3f5f:	48 ff 47 28          	incq   0x28(%rdi)
    3f63:	48 31 ff             	xor    %rdi,%rdi
    3f66:	89 7d b0             	mov    %edi,-0x50(%rbp)
    3f69:	48 31 ff             	xor    %rdi,%rdi
    3f6c:	48 31 c0             	xor    %rax,%rax
    3f6f:	c9                   	leave  
    3f70:	c3                   	ret    
    3f71:	55                   	push   %rbp
    3f72:	48 89 e5             	mov    %rsp,%rbp
    3f75:	48 81 ec 60 00 00 00 	sub    $0x60,%rsp
    3f7c:	48 89 7d f8          	mov    %rdi,-0x8(%rbp)
    3f80:	48 b8 00 5d 69 55 55 	movabs $0x555555695d00,%rax
    3f87:	55 00 00 
    3f8a:	48 8b 00             	mov    (%rax),%rax
    3f8d:	48 89 45 f0          	mov    %rax,-0x10(%rbp)
    3f91:	48 31 c0             	xor    %rax,%rax
    3f94:	48 89 45 b8          	mov    %rax,-0x48(%rbp)
    3f98:	48 89 45 b0          	mov    %rax,-0x50(%rbp)
    3f9c:	48 89 45 a8          	mov    %rax,-0x58(%rbp)
    3fa0:	48 89 45 a0          	mov    %rax,-0x60(%rbp)
    3fa4:	48 b8 80 5c 69 55 55 	movabs $0x555555695c80,%rax
    3fab:	55 00 00 
    3fae:	48 8b 48 00          	mov    0x0(%rax),%rcx
    3fb2:	48 89 4d b8          	mov    %rcx,-0x48(%rbp)
    3fb6:	48 8b 48 08          	mov    0x8(%rax),%rcx
    3fba:	48 89 4d b0          	mov    %rcx,-0x50(%rbp)
    3fbe:	48 8b 48 10          	mov    0x10(%rax),%rcx
    3fc2:	48 89 4d a8          	mov    %rcx,-0x58(%rbp)
    3fc6:	48 8b 45 b8          	mov    -0x48(%rbp),%rax
    3fca:	48 8b 40 18          	mov    0x18(%rax),%rax
    3fce:	48 8b 48 48          	mov    0x48(%rax),%rcx
    3fd2:	48 89 4d f0          	mov    %rcx,-0x10(%rbp)
    3fd6:	48 8b 7d b8          	mov    -0x48(%rbp),%rdi
    3fda:	48 81 ff 00 00 00 00 	cmp    $0x0,%rdi
    3fe1:	0f 84 08 00 00 00    	je     0x3fef
    3fe7:	48 ff 47 20          	incq   0x20(%rdi)
    3feb:	48 ff 47 28          	incq   0x28(%rdi)
    3fef:	48 89 f9             	mov    %rdi,%rcx
    3ff2:	48 ff 49 20          	decq   0x20(%rcx)
    3ff6:	48 ff 49 28          	decq   0x28(%rcx)
    3ffa:	48 8b 51 18          	mov    0x18(%rcx),%rdx
    3ffe:	48 81 c2 50 00 00 00 	add    $0x50,%rdx
    4005:	48 8b 3a             	mov    (%rdx),%rdi
    4008:	48 81 ff 00 00 00 00 	cmp    $0x0,%rdi
    400f:	0f 84 08 00 00 00    	je     0x401d
    4015:	48 ff 47 20          	incq   0x20(%rdi)
    4019:	48 ff 47 28          	incq   0x28(%rdi)
    401d:	48 8b 75 b0          	mov    -0x50(%rbp),%rsi
    4021:	48 89 f8             	mov    %rdi,%rax
    4024:	50                   	push   %rax
    4025:	48 8b 48 18          	mov    0x18(%rax),%rcx
    4029:	48 bb 08 00 00 00 00 	movabs $0x8,%rbx
    4030:	00 00 00 
    4033:	48 8b 41 00          	mov    0x0(%rcx),%rax
    4037:	48 f7 e6             	mul    %rsi
    403a:	48 01 c3             	add    %rax,%rbx
    403d:	5f                   	pop    %rdi
    403e:	48 89 de             	mov    %rbx,%rsi
    4041:	48 31 c9             	xor    %rcx,%rcx
    4044:	40 8a 4d f0          	rex mov -0x10(%rbp),%cl
    4048:	48 b8 20 30 59 55 55 	movabs $0x555555593020,%rax
    404f:	55 00 00 
    4052:	48 8b 04 c8          	mov    (%rax,%rcx,8),%rax
    4056:	ff d0                	call   *%rax
    4058:	48 89 c7             	mov    %rax,%rdi
    405b:	40 8a 45 f0          	rex mov -0x10(%rbp),%al
    405f:	40 80 f8 0a          	rex cmp $0xa,%al
    4063:	0f 85 19 00 00 00    	jne    0x4082
    4069:	48 8b 4d a0          	mov    -0x60(%rbp),%rcx
    406d:	48 81 f9 00 00 00 00 	cmp    $0x0,%rcx
    4074:	0f 84 08 00 00 00    	je     0x4082
    407a:	48 ff 49 20          	decq   0x20(%rcx)
    407e:	48 ff 49 28          	decq   0x28(%rcx)
    4082:	48 89 7d a0          	mov    %rdi,-0x60(%rbp)
    4086:	40 80 f8 0a          	rex cmp $0xa,%al
    408a:	0f 85 15 00 00 00    	jne    0x40a5
    4090:	48 81 ff 00 00 00 00 	cmp    $0x0,%rdi
    4097:	0f 84 08 00 00 00    	je     0x40a5
    409d:	48 ff 47 20          	incq   0x20(%rdi)
    40a1:	48 ff 47 28          	incq   0x28(%rdi)
    40a5:	48 8b 7d b8          	mov    -0x48(%rbp),%rdi
    40a9:	48 81 ff 00 00 00 00 	cmp    $0x0,%rdi
    40b0:	0f 84 08 00 00 00    	je     0x40be
    40b6:	48 ff 47 20          	incq   0x20(%rdi)
    40ba:	48 ff 47 28          	incq   0x28(%rdi)
    40be:	48 89 f9             	mov    %rdi,%rcx
    40c1:	48 ff 49 20          	decq   0x20(%rcx)
    40c5:	48 ff 49 28          	decq   0x28(%rcx)
    40c9:	48 8b 51 18          	mov    0x18(%rcx),%rdx
    40cd:	48 81 c2 50 00 00 00 	add    $0x50,%rdx
    40d4:	48 8b 3a             	mov    (%rdx),%rdi
    40d7:	48 81 ff 00 00 00 00 	cmp    $0x0,%rdi
    40de:	0f 84 08 00 00 00    	je     0x40ec
    40e4:	48 ff 47 20          	incq   0x20(%rdi)
    40e8:	48 ff 47 28          	incq   0x28(%rdi)
    40ec:	48 8b 75 b0          	mov    -0x50(%rbp),%rsi
    40f0:	4c 8b 45 b8          	mov    -0x48(%rbp),%r8
    40f4:	49 81 f8 00 00 00 00 	cmp    $0x0,%r8
    40fb:	0f 84 08 00 00 00    	je     0x4109
    4101:	49 ff 40 20          	incq   0x20(%r8)
    4105:	49 ff 40 28          	incq   0x28(%r8)
    4109:	4c 89 c1             	mov    %r8,%rcx
    410c:	48 ff 49 20          	decq   0x20(%rcx)
    4110:	48 ff 49 28          	decq   0x28(%rcx)
    4114:	48 8b 51 18          	mov    0x18(%rcx),%rdx
    4118:	48 81 c2 50 00 00 00 	add    $0x50,%rdx
    411f:	4c 8b 02             	mov    (%rdx),%r8
    4122:	49 81 f8 00 00 00 00 	cmp    $0x0,%r8
    4129:	0f 84 08 00 00 00    	je     0x4137
    412f:	49 ff 40 20          	incq   0x20(%r8)
    4133:	49 ff 40 28          	incq   0x28(%r8)
    4137:	4c 8b 4d a8          	mov    -0x58(%rbp),%r9
    413b:	57                   	push   %rdi
    413c:	56                   	push   %rsi
    413d:	4c 89 c0             	mov    %r8,%rax
    4140:	50                   	push   %rax
    4141:	48 8b 48 18          	mov    0x18(%rax),%rcx
    4145:	48 bb 08 00 00 00 00 	movabs $0x8,%rbx
    414c:	00 00 00 
    414f:	48 8b 41 00          	mov    0x0(%rcx),%rax
    4153:	49 f7 e1             	mul    %r9
    4156:	48 01 c3             	add    %rax,%rbx
    4159:	5f                   	pop    %rdi
    415a:	48 89 de             	mov    %rbx,%rsi
    415d:	48 31 c9             	xor    %rcx,%rcx
    4160:	40 8a 4d f0          	rex mov -0x10(%rbp),%cl
    4164:	48 b8 20 30 59 55 55 	movabs $0x555555593020,%rax
    416b:	55 00 00 
    416e:	48 8b 04 c8          	mov    (%rax,%rcx,8),%rax
    4172:	ff d0                	call   *%rax
    4174:	5e                   	pop    %rsi
    4175:	5f                   	pop    %rdi
    4176:	49 89 c0             	mov    %rax,%r8
    4179:	48 89 f8             	mov    %rdi,%rax
    417c:	50                   	push   %rax
    417d:	48 8b 48 18          	mov    0x18(%rax),%rcx
    4181:	48 bb 08 00 00 00 00 	movabs $0x8,%rbx
    4188:	00 00 00 
    418b:	48 8b 41 00          	mov    0x0(%rcx),%rax
    418f:	48 f7 e6             	mul    %rsi
    4192:	48 01 c3             	add    %rax,%rbx
    4195:	4c 89 c2             	mov    %r8,%rdx
    4198:	48 89 de             	mov    %rbx,%rsi
    419b:	5f                   	pop    %rdi
    419c:	48 31 c9             	xor    %rcx,%rcx
    419f:	40 8a 4d f0          	rex mov -0x10(%rbp),%cl
    41a3:	48 b8 80 30 59 55 55 	movabs $0x555555593080,%rax
    41aa:	55 00 00 
    41ad:	48 8b 04 c8          	mov    (%rax,%rcx,8),%rax
    41b1:	ff d0                	call   *%rax
    41b3:	48 8b 7d b8          	mov    -0x48(%rbp),%rdi
    41b7:	48 81 ff 00 00 00 00 	cmp    $0x0,%rdi
    41be:	0f 84 08 00 00 00    	je     0x41cc
    41c4:	48 ff 47 20          	incq   0x20(%rdi)
    41c8:	48 ff 47 28          	incq   0x28(%rdi)
    41cc:	48 89 f9             	mov    %rdi,%rcx
    41cf:	48 ff 49 20          	decq   0x20(%rcx)
    41d3:	48 ff 49 28          	decq   0x28(%rcx)
    41d7:	48 8b 51 18          	mov    0x18(%rcx),%rdx
    41db:	48 81 c2 50 00 00 00 	add    $0x50,%rdx
    41e2:	48 8b 3a             	mov    (%rdx),%rdi
    41e5:	48 81 ff 00 00 00 00 	cmp    $0x0,%rdi
    41ec:	0f 84 08 00 00 00    	je     0x41fa
    41f2:	48 ff 47 20          	incq   0x20(%rdi)
    41f6:	48 ff 47 28          	incq   0x28(%rdi)
    41fa:	48 8b 75 a8          	mov    -0x58(%rbp),%rsi
    41fe:	4c 8b 45 a0          	mov    -0x60(%rbp),%r8
    4202:	40 8a 45 f0          	rex mov -0x10(%rbp),%al
    4206:	40 80 f8 0a          	rex cmp $0xa,%al
    420a:	0f 85 15 00 00 00    	jne    0x4225
    4210:	49 81 f8 00 00 00 00 	cmp    $0x0,%r8
    4217:	0f 84 08 00 00 00    	je     0x4225
    421d:	49 ff 40 20          	incq   0x20(%r8)
    4221:	49 ff 40 28          	incq   0x28(%r8)
    4225:	48 89 f8             	mov    %rdi,%rax
    4228:	50                   	push   %rax
    4229:	48 8b 48 18          	mov    0x18(%rax),%rcx
    422d:	48 bb 08 00 00 00 00 	movabs $0x8,%rbx
    4234:	00 00 00 
    4237:	48 8b 41 00          	mov    0x0(%rcx),%rax
    423b:	48 f7 e6             	mul    %rsi
    423e:	48 01 c3             	add    %rax,%rbx
    4241:	4c 89 c2             	mov    %r8,%rdx
    4244:	48 89 de             	mov    %rbx,%rsi
    4247:	5f                   	pop    %rdi
    4248:	48 31 c9             	xor    %rcx,%rcx
    424b:	40 8a 4d f0          	rex mov -0x10(%rbp),%cl
    424f:	48 b8 80 30 59 55 55 	movabs $0x555555593080,%rax
    4256:	55 00 00 
    4259:	48 8b 04 c8          	mov    (%rax,%rcx,8),%rax
    425d:	ff d0                	call   *%rax
    425f:	48 31 ff             	xor    %rdi,%rdi
    4262:	40 8a 45 f0          	rex mov -0x10(%rbp),%al
    4266:	40 80 f8 0a          	rex cmp $0xa,%al
    426a:	0f 85 19 00 00 00    	jne    0x4289
    4270:	48 8b 4d a0          	mov    -0x60(%rbp),%rcx
    4274:	48 81 f9 00 00 00 00 	cmp    $0x0,%rcx
    427b:	0f 84 08 00 00 00    	je     0x4289
    4281:	48 ff 49 20          	decq   0x20(%rcx)
    4285:	48 ff 49 28          	decq   0x28(%rcx)
    4289:	48 89 7d a0          	mov    %rdi,-0x60(%rbp)
    428d:	40 80 f8 0a          	rex cmp $0xa,%al
    4291:	0f 85 15 00 00 00    	jne    0x42ac
    4297:	48 81 ff 00 00 00 00 	cmp    $0x0,%rdi
    429e:	0f 84 08 00 00 00    	je     0x42ac
    42a4:	48 ff 47 20          	incq   0x20(%rdi)
    42a8:	48 ff 47 28          	incq   0x28(%rdi)
    42ac:	48 31 ff             	xor    %rdi,%rdi
    42af:	48 8b 4d b8          	mov    -0x48(%rbp),%rcx
    42b3:	48 31 d2             	xor    %rdx,%rdx
    42b6:	48 39 d1             	cmp    %rdx,%rcx
    42b9:	0f 84 23 00 00 00    	je     0x42e2
    42bf:	48 ff 49 20          	decq   0x20(%rcx)
    42c3:	48 ff 49 28          	decq   0x28(%rcx)
    42c7:	48 39 51 20          	cmp    %rdx,0x20(%rcx)
    42cb:	0f 85 11 00 00 00    	jne    0x42e2
    42d1:	57                   	push   %rdi
    42d2:	48 b8 7f 95 58 55 55 	movabs $0x55555558957f,%rax
    42d9:	55 00 00 
    42dc:	48 89 cf             	mov    %rcx,%rdi
    42df:	ff d0                	call   *%rax
    42e1:	5f                   	pop    %rdi
    42e2:	48 89 7d b8          	mov    %rdi,-0x48(%rbp)
    42e6:	48 31 ff             	xor    %rdi,%rdi
    42e9:	89 7d b0             	mov    %edi,-0x50(%rbp)
    42ec:	48 31 ff             	xor    %rdi,%rdi
    42ef:	89 7d a8             	mov    %edi,-0x58(%rbp)
    42f2:	48 31 ff             	xor    %rdi,%rdi
    42f5:	48 31 c0             	xor    %rax,%rax
    42f8:	c9                   	leave  
    42f9:	c3                   	ret    
    42fa:	55                   	push   %rbp
    42fb:	48 89 e5             	mov    %rsp,%rbp
    42fe:	48 81 ec 48 00 00 00 	sub    $0x48,%rsp
    4305:	48 89 7d f8          	mov    %rdi,-0x8(%rbp)
    4309:	48 b8 00 5d 69 55 55 	movabs $0x555555695d00,%rax
    4310:	55 00 00 
    4313:	48 8b 00             	mov    (%rax),%rax
    4316:	48 89 45 f0          	mov    %rax,-0x10(%rbp)
    431a:	48 31 c0             	xor    %rax,%rax
    431d:	48 89 45 b8          	mov    %rax,-0x48(%rbp)
    4321:	48 b8 80 5c 69 55 55 	movabs $0x555555695c80,%rax
    4328:	55 00 00 
    432b:	48 8b 48 00          	mov    0x0(%rax),%rcx
    432f:	48 89 4d b8          	mov    %rcx,-0x48(%rbp)
    4333:	48 8b 7d b8          	mov    -0x48(%rbp),%rdi
    4337:	48 81 ff 00 00 00 00 	cmp    $0x0,%rdi
    433e:	0f 84 08 00 00 00    	je     0x434c
    4344:	48 ff 47 20          	incq   0x20(%rdi)
    4348:	48 ff 47 28          	incq   0x28(%rdi)
    434c:	48 31 f6             	xor    %rsi,%rsi
    434f:	40 8a 75 f0          	mov    -0x10(%rbp),%sil
    4353:	48 89 f9             	mov    %rdi,%rcx
    4356:	48 ff 49 20          	decq   0x20(%rcx)
    435a:	48 ff 49 28          	decq   0x28(%rcx)
    435e:	48 8b 51 18          	mov    0x18(%rcx),%rdx
    4362:	48 81 c2 28 00 00 00 	add    $0x28,%rdx
    4369:	40 88 32             	mov    %sil,(%rdx)
    436c:	48 bf 05 00 00 00 00 	movabs $0x5,%rdi
    4373:	00 00 00 
    4376:	48 31 f6             	xor    %rsi,%rsi
    4379:	40 8a 75 f0          	mov    -0x10(%rbp),%sil
    437d:	48 b8 00 5d 69 55 55 	movabs $0x555555695d00,%rax
    4384:	55 00 00 
    4387:	40 88 78 00          	mov    %dil,0x0(%rax)
    438b:	40 88 70 01          	mov    %sil,0x1(%rax)
    438f:	48 8b 7d b8          	mov    -0x48(%rbp),%rdi
    4393:	48 81 ff 00 00 00 00 	cmp    $0x0,%rdi
    439a:	0f 84 08 00 00 00    	je     0x43a8
    43a0:	48 ff 47 20          	incq   0x20(%rdi)
    43a4:	48 ff 47 28          	incq   0x28(%rdi)
    43a8:	48 b8 80 5c 69 55 55 	movabs $0x555555695c80,%rax
    43af:	55 00 00 
    43b2:	48 89 78 00          	mov    %rdi,0x0(%rax)
    43b6:	48 8b 4d f8          	mov    -0x8(%rbp),%rcx
    43ba:	48 8b 51 10          	mov    0x10(%rcx),%rdx
    43be:	48 8b 42 00          	mov    0x0(%rdx),%rax
    43c2:	48 89 c7             	mov    %rax,%rdi
    43c5:	48 8b 40 68          	mov    0x68(%rax),%rax
    43c9:	48 b9 20 2f 00 00 00 	movabs $0x2f20,%rcx
    43d0:	00 00 00 
    43d3:	48 8b 04 c8          	mov    (%rax,%rcx,8),%rax
    43d7:	ff d0                	call   *%rax
    43d9:	48 89 c7             	mov    %rax,%rdi
    43dc:	48 31 ff             	xor    %rdi,%rdi
    43df:	48 8b 7d b8          	mov    -0x48(%rbp),%rdi
    43e3:	48 81 ff 00 00 00 00 	cmp    $0x0,%rdi
    43ea:	0f 84 08 00 00 00    	je     0x43f8
    43f0:	48 ff 47 20          	incq   0x20(%rdi)
    43f4:	48 ff 47 28          	incq   0x28(%rdi)
    43f8:	57                   	push   %rdi
    43f9:	48 8b 7d f8          	mov    -0x8(%rbp),%rdi
    43fd:	48 be 00 00 00 00 00 	movabs $0x0,%rsi
    4404:	00 00 00 
    4407:	48 b8 71 bf 58 55 55 	movabs $0x55555558bf71,%rax
    440e:	55 00 00 
    4411:	ff d0                	call   *%rax
    4413:	5f                   	pop    %rdi
    4414:	48 c1 e0 30          	shl    $0x30,%rax
    4418:	48 b9 6c 2b 00 00 00 	movabs $0x2b6c,%rcx
    441f:	00 00 00 
    4422:	48 09 c8             	or     %rcx,%rax
    4425:	48 89 c6             	mov    %rax,%rsi
    4428:	48 89 f9             	mov    %rdi,%rcx
    442b:	48 ff 49 20          	decq   0x20(%rcx)
    442f:	48 ff 49 28          	decq   0x28(%rcx)
    4433:	48 8b 51 18          	mov    0x18(%rcx),%rdx
    4437:	48 81 c2 18 00 00 00 	add    $0x18,%rdx
    443e:	48 89 32             	mov    %rsi,(%rdx)
    4441:	48 8b 7d b8          	mov    -0x48(%rbp),%rdi
    4445:	48 81 ff 00 00 00 00 	cmp    $0x0,%rdi
    444c:	0f 84 08 00 00 00    	je     0x445a
    4452:	48 ff 47 20          	incq   0x20(%rdi)
    4456:	48 ff 47 28          	incq   0x28(%rdi)
    445a:	57                   	push   %rdi
    445b:	48 8b 7d f8          	mov    -0x8(%rbp),%rdi
    445f:	48 be 00 00 00 00 00 	movabs $0x0,%rsi
    4466:	00 00 00 
    4469:	48 b8 71 bf 58 55 55 	movabs $0x55555558bf71,%rax
    4470:	55 00 00 
    4473:	ff d0                	call   *%rax
    4475:	5f                   	pop    %rdi
    4476:	48 c1 e0 30          	shl    $0x30,%rax
    447a:	48 b9 d8 2b 00 00 00 	movabs $0x2bd8,%rcx
    4481:	00 00 00 
    4484:	48 09 c8             	or     %rcx,%rax
    4487:	48 89 c6             	mov    %rax,%rsi
    448a:	48 89 f9             	mov    %rdi,%rcx
    448d:	48 ff 49 20          	decq   0x20(%rcx)
    4491:	48 ff 49 28          	decq   0x28(%rcx)
    4495:	48 8b 51 18          	mov    0x18(%rcx),%rdx
    4499:	48 81 c2 30 00 00 00 	add    $0x30,%rdx
    44a0:	48 89 32             	mov    %rsi,(%rdx)
    44a3:	48 8b 7d b8          	mov    -0x48(%rbp),%rdi
    44a7:	48 81 ff 00 00 00 00 	cmp    $0x0,%rdi
    44ae:	0f 84 08 00 00 00    	je     0x44bc
    44b4:	48 ff 47 20          	incq   0x20(%rdi)
    44b8:	48 ff 47 28          	incq   0x28(%rdi)
    44bc:	57                   	push   %rdi
    44bd:	48 8b 7d f8          	mov    -0x8(%rbp),%rdi
    44c1:	48 be 00 00 00 00 00 	movabs $0x0,%rsi
    44c8:	00 00 00 
    44cb:	48 b8 71 bf 58 55 55 	movabs $0x55555558bf71,%rax
    44d2:	55 00 00 
    44d5:	ff d0                	call   *%rax
    44d7:	5f                   	pop    %rdi
    44d8:	48 c1 e0 30          	shl    $0x30,%rax
    44dc:	48 b9 2c 2c 00 00 00 	movabs $0x2c2c,%rcx
    44e3:	00 00 00 
    44e6:	48 09 c8             	or     %rcx,%rax
    44e9:	48 89 c6             	mov    %rax,%rsi
    44ec:	48 89 f9             	mov    %rdi,%rcx
    44ef:	48 ff 49 20          	decq   0x20(%rcx)
    44f3:	48 ff 49 28          	decq   0x28(%rcx)
    44f7:	48 8b 51 18          	mov    0x18(%rcx),%rdx
    44fb:	48 81 c2 20 00 00 00 	add    $0x20,%rdx
    4502:	48 89 32             	mov    %rsi,(%rdx)
    4505:	48 8b 7d b8          	mov    -0x48(%rbp),%rdi
    4509:	48 81 ff 00 00 00 00 	cmp    $0x0,%rdi
    4510:	0f 84 08 00 00 00    	je     0x451e
    4516:	48 ff 47 20          	incq   0x20(%rdi)
    451a:	48 ff 47 28          	incq   0x28(%rdi)
    451e:	57                   	push   %rdi
    451f:	48 8b 7d f8          	mov    -0x8(%rbp),%rdi
    4523:	48 be 00 00 00 00 00 	movabs $0x0,%rsi
    452a:	00 00 00 
    452d:	48 b8 71 bf 58 55 55 	movabs $0x55555558bf71,%rax
    4534:	55 00 00 
    4537:	ff d0                	call   *%rax
    4539:	5f                   	pop    %rdi
    453a:	48 c1 e0 30          	shl    $0x30,%rax
    453e:	48 b9 b0 2c 00 00 00 	movabs $0x2cb0,%rcx
    4545:	00 00 00 
    4548:	48 09 c8             	or     %rcx,%rax
    454b:	48 89 c6             	mov    %rax,%rsi
    454e:	48 89 f9             	mov    %rdi,%rcx
    4551:	48 ff 49 20          	decq   0x20(%rcx)
    4555:	48 ff 49 28          	decq   0x28(%rcx)
    4559:	48 8b 51 18          	mov    0x18(%rcx),%rdx
    455d:	48 81 c2 38 00 00 00 	add    $0x38,%rdx
    4564:	48 89 32             	mov    %rsi,(%rdx)
    4567:	48 8b 7d b8          	mov    -0x48(%rbp),%rdi
    456b:	48 81 ff 00 00 00 00 	cmp    $0x0,%rdi
    4572:	0f 84 08 00 00 00    	je     0x4580
    4578:	48 ff 47 20          	incq   0x20(%rdi)
    457c:	48 ff 47 28          	incq   0x28(%rdi)
    4580:	57                   	push   %rdi
    4581:	48 8b 7d f8          	mov    -0x8(%rbp),%rdi
    4585:	48 be 00 00 00 00 00 	movabs $0x0,%rsi
    458c:	00 00 00 
    458f:	48 b8 71 bf 58 55 55 	movabs $0x55555558bf71,%rax
    4596:	55 00 00 
    4599:	ff d0                	call   *%rax
    459b:	5f                   	pop    %rdi
    459c:	48 c1 e0 30          	shl    $0x30,%rax
    45a0:	48 b9 34 2d 00 00 00 	movabs $0x2d34,%rcx
    45a7:	00 00 00 
    45aa:	48 09 c8             	or     %rcx,%rax
    45ad:	48 89 c6             	mov    %rax,%rsi
    45b0:	48 89 f9             	mov    %rdi,%rcx
    45b3:	48 ff 49 20          	decq   0x20(%rcx)
    45b7:	48 ff 49 28          	decq   0x28(%rcx)
    45bb:	48 8b 51 18          	mov    0x18(%rcx),%rdx
    45bf:	48 81 c2 40 00 00 00 	add    $0x40,%rdx
    45c6:	48 89 32             	mov    %rsi,(%rdx)
    45c9:	48 31 ff             	xor    %rdi,%rdi
    45cc:	48 8b 4d b8          	mov    -0x48(%rbp),%rcx
    45d0:	48 31 d2             	xor    %rdx,%rdx
    45d3:	48 39 d1             	cmp    %rdx,%rcx
    45d6:	0f 84 23 00 00 00    	je     0x45ff
    45dc:	48 ff 49 20          	decq   0x20(%rcx)
    45e0:	48 ff 49 28          	decq   0x28(%rcx)
    45e4:	48 39 51 20          	cmp    %rdx,0x20(%rcx)
    45e8:	0f 85 11 00 00 00    	jne    0x45ff
    45ee:	57                   	push   %rdi
    45ef:	48 b8 7f 95 58 55 55 	movabs $0x55555558957f,%rax
    45f6:	55 00 00 
    45f9:	48 89 cf             	mov    %rcx,%rdi
    45fc:	ff d0                	call   *%rax
    45fe:	5f                   	pop    %rdi
    45ff:	48 89 7d b8          	mov    %rdi,-0x48(%rbp)
    4603:	48 31 ff             	xor    %rdi,%rdi
    4606:	48 31 c0             	xor    %rax,%rax
    4609:	c9                   	leave  
    460a:	c3                   	ret    
    460b:	55                   	push   %rbp
    460c:	48 89 e5             	mov    %rsp,%rbp
    460f:	48 81 ec 50 00 00 00 	sub    $0x50,%rsp
    4616:	48 89 7d f8          	mov    %rdi,-0x8(%rbp)
    461a:	48 b8 00 5d 69 55 55 	movabs $0x555555695d00,%rax
    4621:	55 00 00 
    4624:	48 8b 00             	mov    (%rax),%rax
    4627:	48 89 45 f0          	mov    %rax,-0x10(%rbp)
    462b:	48 31 c0             	xor    %rax,%rax
    462e:	48 89 45 b8          	mov    %rax,-0x48(%rbp)
    4632:	48 89 45 b0          	mov    %rax,-0x50(%rbp)
    4636:	48 b8 80 5c 69 55 55 	movabs $0x555555695c80,%rax
    463d:	55 00 00 
    4640:	48 8b 48 00          	mov    0x0(%rax),%rcx
    4644:	48 89 4d b8          	mov    %rcx,-0x48(%rbp)
    4648:	48 8b 48 08          	mov    0x8(%rax),%rcx
    464c:	48 89 4d b0          	mov    %rcx,-0x50(%rbp)
    4650:	48 8b 45 b8          	mov    -0x48(%rbp),%rax
    4654:	48 8b 40 18          	mov    0x18(%rax),%rax
    4658:	48 8b 48 28          	mov    0x28(%rax),%rcx
    465c:	48 89 4d f0          	mov    %rcx,-0x10(%rbp)
    4660:	48 31 ff             	xor    %rdi,%rdi
    4663:	48 8b 4d b8          	mov    -0x48(%rbp),%rcx
    4667:	48 31 d2             	xor    %rdx,%rdx
    466a:	48 39 d1             	cmp    %rdx,%rcx
    466d:	0f 84 23 00 00 00    	je     0x4696
    4673:	48 ff 49 20          	decq   0x20(%rcx)
    4677:	48 ff 49 28          	decq   0x28(%rcx)
    467b:	48 39 51 20          	cmp    %rdx,0x20(%rcx)
    467f:	0f 85 11 00 00 00    	jne    0x4696
    4685:	57                   	push   %rdi
    4686:	48 b8 7f 95 58 55 55 	movabs $0x55555558957f,%rax
    468d:	55 00 00 
    4690:	48 89 cf             	mov    %rcx,%rdi
    4693:	ff d0                	call   *%rax
    4695:	5f                   	pop    %rdi
    4696:	48 89 7d b8          	mov    %rdi,-0x48(%rbp)
    469a:	48 31 ff             	xor    %rdi,%rdi
    469d:	89 7d b0             	mov    %edi,-0x50(%rbp)
    46a0:	48 31 ff             	xor    %rdi,%rdi
    46a3:	48 89 f8             	mov    %rdi,%rax
    46a6:	c9                   	leave  
    46a7:	c3                   	ret    
    46a8:	55                   	push   %rbp
    46a9:	48 89 e5             	mov    %rsp,%rbp
    46ac:	48 81 ec 48 00 00 00 	sub    $0x48,%rsp
    46b3:	48 89 7d f8          	mov    %rdi,-0x8(%rbp)
    46b7:	48 b8 00 5d 69 55 55 	movabs $0x555555695d00,%rax
    46be:	55 00 00 
    46c1:	48 8b 00             	mov    (%rax),%rax
    46c4:	48 89 45 f0          	mov    %rax,-0x10(%rbp)
    46c8:	48 31 c0             	xor    %rax,%rax
    46cb:	48 89 45 b8          	mov    %rax,-0x48(%rbp)
    46cf:	48 b8 80 5c 69 55 55 	movabs $0x555555695c80,%rax
    46d6:	55 00 00 
    46d9:	48 8b 48 00          	mov    0x0(%rax),%rcx
    46dd:	48 89 4d b8          	mov    %rcx,-0x48(%rbp)
    46e1:	48 8b 45 b8          	mov    -0x48(%rbp),%rax
    46e5:	48 8b 40 18          	mov    0x18(%rax),%rax
    46e9:	48 8b 48 28          	mov    0x28(%rax),%rcx
    46ed:	48 89 4d f0          	mov    %rcx,-0x10(%rbp)
    46f1:	48 31 ff             	xor    %rdi,%rdi
    46f4:	48 8b 4d b8          	mov    -0x48(%rbp),%rcx
    46f8:	48 31 d2             	xor    %rdx,%rdx
    46fb:	48 39 d1             	cmp    %rdx,%rcx
    46fe:	0f 84 23 00 00 00    	je     0x4727
    4704:	48 ff 49 20          	decq   0x20(%rcx)
    4708:	48 ff 49 28          	decq   0x28(%rcx)
    470c:	48 39 51 20          	cmp    %rdx,0x20(%rcx)
    4710:	0f 85 11 00 00 00    	jne    0x4727
    4716:	57                   	push   %rdi
    4717:	48 b8 7f 95 58 55 55 	movabs $0x55555558957f,%rax
    471e:	55 00 00 
    4721:	48 89 cf             	mov    %rcx,%rdi
    4724:	ff d0                	call   *%rax
    4726:	5f                   	pop    %rdi
    4727:	48 89 7d b8          	mov    %rdi,-0x48(%rbp)
    472b:	48 31 ff             	xor    %rdi,%rdi
    472e:	48 89 f8             	mov    %rdi,%rax
    4731:	c9                   	leave  
    4732:	c3                   	ret    
    4733:	55                   	push   %rbp
    4734:	48 89 e5             	mov    %rsp,%rbp
    4737:	48 81 ec 58 00 00 00 	sub    $0x58,%rsp
    473e:	48 89 7d f8          	mov    %rdi,-0x8(%rbp)
    4742:	48 b8 00 5d 69 55 55 	movabs $0x555555695d00,%rax
    4749:	55 00 00 
    474c:	48 8b 00             	mov    (%rax),%rax
    474f:	48 89 45 f0          	mov    %rax,-0x10(%rbp)
    4753:	48 31 c0             	xor    %rax,%rax
    4756:	48 89 45 b8          	mov    %rax,-0x48(%rbp)
    475a:	48 89 45 b0          	mov    %rax,-0x50(%rbp)
    475e:	48 89 45 a8          	mov    %rax,-0x58(%rbp)
    4762:	48 b8 80 5c 69 55 55 	movabs $0x555555695c80,%rax
    4769:	55 00 00 
    476c:	48 8b 48 00          	mov    0x0(%rax),%rcx
    4770:	48 89 4d b8          	mov    %rcx,-0x48(%rbp)
    4774:	48 8b 48 08          	mov    0x8(%rax),%rcx
    4778:	48 89 4d b0          	mov    %rcx,-0x50(%rbp)
    477c:	48 8b 48 10          	mov    0x10(%rax),%rcx
    4780:	48 89 4d a8          	mov    %rcx,-0x58(%rbp)
    4784:	48 8b 45 b8          	mov    -0x48(%rbp),%rax
    4788:	48 8b 40 18          	mov    0x18(%rax),%rax
    478c:	48 8b 48 28          	mov    0x28(%rax),%rcx
    4790:	48 89 4d f0          	mov    %rcx,-0x10(%rbp)
    4794:	48 31 ff             	xor    %rdi,%rdi
    4797:	48 8b 4d b8          	mov    -0x48(%rbp),%rcx
    479b:	48 31 d2             	xor    %rdx,%rdx
    479e:	48 39 d1             	cmp    %rdx,%rcx
    47a1:	0f 84 23 00 00 00    	je     0x47ca
    47a7:	48 ff 49 20          	decq   0x20(%rcx)
    47ab:	48 ff 49 28          	decq   0x28(%rcx)
    47af:	48 39 51 20          	cmp    %rdx,0x20(%rcx)
    47b3:	0f 85 11 00 00 00    	jne    0x47ca
    47b9:	57                   	push   %rdi
    47ba:	48 b8 7f 95 58 55 55 	movabs $0x55555558957f,%rax
    47c1:	55 00 00 
    47c4:	48 89 cf             	mov    %rcx,%rdi
    47c7:	ff d0                	call   *%rax
    47c9:	5f                   	pop    %rdi
    47ca:	48 89 7d b8          	mov    %rdi,-0x48(%rbp)
    47ce:	48 31 ff             	xor    %rdi,%rdi
    47d1:	40 8a 45 f0          	rex mov -0x10(%rbp),%al
    47d5:	40 80 f8 0a          	rex cmp $0xa,%al
    47d9:	0f 85 19 00 00 00    	jne    0x47f8
    47df:	48 8b 4d a8          	mov    -0x58(%rbp),%rcx
    47e3:	48 81 f9 00 00 00 00 	cmp    $0x0,%rcx
    47ea:	0f 84 08 00 00 00    	je     0x47f8
    47f0:	48 ff 49 20          	decq   0x20(%rcx)
    47f4:	48 ff 49 28          	decq   0x28(%rcx)
    47f8:	48 89 7d a8          	mov    %rdi,-0x58(%rbp)
    47fc:	40 80 f8 0a          	rex cmp $0xa,%al
    4800:	0f 85 15 00 00 00    	jne    0x481b
    4806:	48 81 ff 00 00 00 00 	cmp    $0x0,%rdi
    480d:	0f 84 08 00 00 00    	je     0x481b
    4813:	48 ff 47 20          	incq   0x20(%rdi)
    4817:	48 ff 47 28          	incq   0x28(%rdi)
    481b:	48 31 ff             	xor    %rdi,%rdi
    481e:	89 7d b0             	mov    %edi,-0x50(%rbp)
    4821:	48 31 ff             	xor    %rdi,%rdi
    4824:	48 31 c0             	xor    %rax,%rax
    4827:	c9                   	leave  
    4828:	c3                   	ret    
    4829:	55                   	push   %rbp
    482a:	48 89 e5             	mov    %rsp,%rbp
    482d:	48 81 ec 58 00 00 00 	sub    $0x58,%rsp
    4834:	48 89 7d f8          	mov    %rdi,-0x8(%rbp)
    4838:	48 b8 00 5d 69 55 55 	movabs $0x555555695d00,%rax
    483f:	55 00 00 
    4842:	48 8b 00             	mov    (%rax),%rax
    4845:	48 89 45 f0          	mov    %rax,-0x10(%rbp)
    4849:	48 31 c0             	xor    %rax,%rax
    484c:	48 89 45 b8          	mov    %rax,-0x48(%rbp)
    4850:	48 89 45 b0          	mov    %rax,-0x50(%rbp)
    4854:	48 89 45 a8          	mov    %rax,-0x58(%rbp)
    4858:	48 b8 80 5c 69 55 55 	movabs $0x555555695c80,%rax
    485f:	55 00 00 
    4862:	48 8b 48 00          	mov    0x0(%rax),%rcx
    4866:	48 89 4d b8          	mov    %rcx,-0x48(%rbp)
    486a:	48 8b 48 08          	mov    0x8(%rax),%rcx
    486e:	48 89 4d b0          	mov    %rcx,-0x50(%rbp)
    4872:	48 8b 48 10          	mov    0x10(%rax),%rcx
    4876:	48 89 4d a8          	mov    %rcx,-0x58(%rbp)
    487a:	48 8b 45 b8          	mov    -0x48(%rbp),%rax
    487e:	48 8b 40 18          	mov    0x18(%rax),%rax
    4882:	48 8b 48 28          	mov    0x28(%rax),%rcx
    4886:	48 89 4d f0          	mov    %rcx,-0x10(%rbp)
    488a:	48 31 ff             	xor    %rdi,%rdi
    488d:	48 8b 4d b8          	mov    -0x48(%rbp),%rcx
    4891:	48 31 d2             	xor    %rdx,%rdx
    4894:	48 39 d1             	cmp    %rdx,%rcx
    4897:	0f 84 23 00 00 00    	je     0x48c0
    489d:	48 ff 49 20          	decq   0x20(%rcx)
    48a1:	48 ff 49 28          	decq   0x28(%rcx)
    48a5:	48 39 51 20          	cmp    %rdx,0x20(%rcx)
    48a9:	0f 85 11 00 00 00    	jne    0x48c0
    48af:	57                   	push   %rdi
    48b0:	48 b8 7f 95 58 55 55 	movabs $0x55555558957f,%rax
    48b7:	55 00 00 
    48ba:	48 89 cf             	mov    %rcx,%rdi
    48bd:	ff d0                	call   *%rax
    48bf:	5f                   	pop    %rdi
    48c0:	48 89 7d b8          	mov    %rdi,-0x48(%rbp)
    48c4:	48 31 ff             	xor    %rdi,%rdi
    48c7:	89 7d b0             	mov    %edi,-0x50(%rbp)
    48ca:	48 31 ff             	xor    %rdi,%rdi
    48cd:	89 7d a8             	mov    %edi,-0x58(%rbp)
    48d0:	48 31 ff             	xor    %rdi,%rdi
    48d3:	48 31 c0             	xor    %rax,%rax
    48d6:	c9                   	leave  
    48d7:	c3                   	ret    
    48d8:	55                   	push   %rbp
    48d9:	48 89 e5             	mov    %rsp,%rbp
    48dc:	48 81 ec 58 00 00 00 	sub    $0x58,%rsp
    48e3:	48 89 7d f8          	mov    %rdi,-0x8(%rbp)
    48e7:	48 b8 00 5d 69 55 55 	movabs $0x555555695d00,%rax
    48ee:	55 00 00 
    48f1:	48 8b 00             	mov    (%rax),%rax
    48f4:	48 89 45 f0          	mov    %rax,-0x10(%rbp)
    48f8:	48 31 c0             	xor    %rax,%rax
    48fb:	48 89 45 b8          	mov    %rax,-0x48(%rbp)
    48ff:	48 89 45 b0          	mov    %rax,-0x50(%rbp)
    4903:	48 89 45 a8          	mov    %rax,-0x58(%rbp)
    4907:	48 b8 80 5c 69 55 55 	movabs $0x555555695c80,%rax
    490e:	55 00 00 
    4911:	48 8b 48 00          	mov    0x0(%rax),%rcx
    4915:	48 89 4d b8          	mov    %rcx,-0x48(%rbp)
    4919:	48 8b 45 b8          	mov    -0x48(%rbp),%rax
    491d:	48 8b 40 18          	mov    0x18(%rax),%rax
    4921:	48 8b 48 28          	mov    0x28(%rax),%rcx
    4925:	48 89 4d f0          	mov    %rcx,-0x10(%rbp)
    4929:	48 31 c9             	xor    %rcx,%rcx
    492c:	40 8a 4d f0          	rex mov -0x10(%rbp),%cl
    4930:	48 b8 40 31 59 55 55 	movabs $0x555555593140,%rax
    4937:	55 00 00 
    493a:	48 8b 3c c8          	mov    (%rax,%rcx,8),%rdi
    493e:	48 8b 75 b8          	mov    -0x48(%rbp),%rsi
    4942:	48 81 fe 00 00 00 00 	cmp    $0x0,%rsi
    4949:	0f 84 08 00 00 00    	je     0x4957
    494f:	48 ff 46 20          	incq   0x20(%rsi)
    4953:	48 ff 46 28          	incq   0x28(%rsi)
    4957:	49 89 f0             	mov    %rsi,%r8
    495a:	48 81 fe 00 00 00 00 	cmp    $0x0,%rsi
    4961:	0f 84 08 00 00 00    	je     0x496f
    4967:	48 ff 46 20          	incq   0x20(%rsi)
    496b:	48 ff 46 28          	incq   0x28(%rsi)
    496f:	48 b8 80 5c 69 55 55 	movabs $0x555555695c80,%rax
    4976:	55 00 00 
    4979:	4c 89 40 00          	mov    %r8,0x0(%rax)
    497d:	48 89 f1             	mov    %rsi,%rcx
    4980:	48 ff 49 20          	decq   0x20(%rcx)
    4984:	48 ff 49 28          	decq   0x28(%rcx)
    4988:	48 8b 51 18          	mov    0x18(%rcx),%rdx
    498c:	48 81 c2 30 00 00 00 	add    $0x30,%rdx
    4993:	48 8b 32             	mov    (%rdx),%rsi
    4996:	57                   	push   %rdi
    4997:	48 89 f7             	mov    %rsi,%rdi
    499a:	48 b8 3f bd 58 55 55 	movabs $0x55555558bd3f,%rax
    49a1:	55 00 00 
    49a4:	ff d0                	call   *%rax
    49a6:	5f                   	pop    %rdi
    49a7:	48 89 c6             	mov    %rax,%rsi
    49aa:	48 89 f8             	mov    %rdi,%rax
    49ad:	48 f7 e6             	mul    %rsi
    49b0:	48 89 c6             	mov    %rax,%rsi
    49b3:	57                   	push   %rdi
    49b4:	48 81 c0 08 00 00 00 	add    $0x8,%rax
    49bb:	48 89 c7             	mov    %rax,%rdi
    49be:	48 b8 46 92 58 55 55 	movabs $0x555555589246,%rax
    49c5:	55 00 00 
    49c8:	ff d0                	call   *%rax
    49ca:	5f                   	pop    %rdi
    49cb:	48 8b 48 18          	mov    0x18(%rax),%rcx
    49cf:	48 89 79 00          	mov    %rdi,0x0(%rcx)
    49d3:	48 89 c7             	mov    %rax,%rdi
    49d6:	48 8b 4d b0          	mov    -0x50(%rbp),%rcx
    49da:	48 31 d2             	xor    %rdx,%rdx
    49dd:	48 39 d1             	cmp    %rdx,%rcx
    49e0:	0f 84 23 00 00 00    	je     0x4a09
    49e6:	48 ff 49 20          	decq   0x20(%rcx)
    49ea:	48 ff 49 28          	decq   0x28(%rcx)
    49ee:	48 39 51 20          	cmp    %rdx,0x20(%rcx)
    49f2:	0f 85 11 00 00 00    	jne    0x4a09
    49f8:	57                   	push   %rdi
    49f9:	48 b8 7f 95 58 55 55 	movabs $0x55555558957f,%rax
    4a00:	55 00 00 
    4a03:	48 89 cf             	mov    %rcx,%rdi
    4a06:	ff d0                	call   *%rax
    4a08:	5f                   	pop    %rdi
    4a09:	48 89 7d b0          	mov    %rdi,-0x50(%rbp)
    4a0d:	48 31 ff             	xor    %rdi,%rdi
    4a10:	89 7d a8             	mov    %edi,-0x58(%rbp)
    4a13:	48 8b 7d a8          	mov    -0x58(%rbp),%rdi
    4a17:	48 8b 75 b8          	mov    -0x48(%rbp),%rsi
    4a1b:	48 81 fe 00 00 00 00 	cmp    $0x0,%rsi
    4a22:	0f 84 08 00 00 00    	je     0x4a30
    4a28:	48 ff 46 20          	incq   0x20(%rsi)
    4a2c:	48 ff 46 28          	incq   0x28(%rsi)
    4a30:	49 89 f0             	mov    %rsi,%r8
    4a33:	48 81 fe 00 00 00 00 	cmp    $0x0,%rsi
    4a3a:	0f 84 08 00 00 00    	je     0x4a48
    4a40:	48 ff 46 20          	incq   0x20(%rsi)
    4a44:	48 ff 46 28          	incq   0x28(%rsi)
    4a48:	48 b8 80 5c 69 55 55 	movabs $0x555555695c80,%rax
    4a4f:	55 00 00 
    4a52:	4c 89 40 00          	mov    %r8,0x0(%rax)
    4a56:	48 89 f1             	mov    %rsi,%rcx
    4a59:	48 ff 49 20          	decq   0x20(%rcx)
    4a5d:	48 ff 49 28          	decq   0x28(%rcx)
    4a61:	48 8b 51 18          	mov    0x18(%rcx),%rdx
    4a65:	48 81 c2 30 00 00 00 	add    $0x30,%rdx
    4a6c:	48 8b 32             	mov    (%rdx),%rsi
    4a6f:	57                   	push   %rdi
    4a70:	48 89 f7             	mov    %rsi,%rdi
    4a73:	48 b8 3f bd 58 55 55 	movabs $0x55555558bd3f,%rax
    4a7a:	55 00 00 
    4a7d:	ff d0                	call   *%rax
    4a7f:	5f                   	pop    %rdi
    4a80:	48 89 c6             	mov    %rax,%rsi
    4a83:	39 f7                	cmp    %esi,%edi
    4a85:	0f 82 08 00 00 00    	jb     0x4a93
    4a8b:	48 31 ff             	xor    %rdi,%rdi
    4a8e:	e9 0a 00 00 00       	jmp    0x4a9d
    4a93:	48 bf 01 00 00 00 00 	movabs $0x1,%rdi
    4a9a:	00 00 00 
    4a9d:	48 81 ff 00 00 00 00 	cmp    $0x0,%rdi
    4aa4:	0f 84 db 00 00 00    	je     0x4b85
    4aaa:	48 8b 7d b0          	mov    -0x50(%rbp),%rdi
    4aae:	48 81 ff 00 00 00 00 	cmp    $0x0,%rdi
    4ab5:	0f 84 08 00 00 00    	je     0x4ac3
    4abb:	48 ff 47 20          	incq   0x20(%rdi)
    4abf:	48 ff 47 28          	incq   0x28(%rdi)
    4ac3:	48 8b 75 a8          	mov    -0x58(%rbp),%rsi
    4ac7:	4c 8b 45 b8          	mov    -0x48(%rbp),%r8
    4acb:	49 81 f8 00 00 00 00 	cmp    $0x0,%r8
    4ad2:	0f 84 08 00 00 00    	je     0x4ae0
    4ad8:	49 ff 40 20          	incq   0x20(%r8)
    4adc:	49 ff 40 28          	incq   0x28(%r8)
    4ae0:	4d 89 c1             	mov    %r8,%r9
    4ae3:	49 81 f8 00 00 00 00 	cmp    $0x0,%r8
    4aea:	0f 84 08 00 00 00    	je     0x4af8
    4af0:	49 ff 40 20          	incq   0x20(%r8)
    4af4:	49 ff 40 28          	incq   0x28(%r8)
    4af8:	4c 8b 55 a8          	mov    -0x58(%rbp),%r10
    4afc:	48 b8 80 5c 69 55 55 	movabs $0x555555695c80,%rax
    4b03:	55 00 00 
    4b06:	4c 89 48 00          	mov    %r9,0x0(%rax)
    4b0a:	4c 89 50 08          	mov    %r10,0x8(%rax)
    4b0e:	4c 89 c1             	mov    %r8,%rcx
    4b11:	48 ff 49 20          	decq   0x20(%rcx)
    4b15:	48 ff 49 28          	decq   0x28(%rcx)
    4b19:	48 8b 51 18          	mov    0x18(%rcx),%rdx
    4b1d:	48 81 c2 18 00 00 00 	add    $0x18,%rdx
    4b24:	4c 8b 02             	mov    (%rdx),%r8
    4b27:	57                   	push   %rdi
    4b28:	56                   	push   %rsi
    4b29:	4c 89 c7             	mov    %r8,%rdi
    4b2c:	48 b8 3f bd 58 55 55 	movabs $0x55555558bd3f,%rax
    4b33:	55 00 00 
    4b36:	ff d0                	call   *%rax
    4b38:	5e                   	pop    %rsi
    4b39:	5f                   	pop    %rdi
    4b3a:	49 89 c0             	mov    %rax,%r8
    4b3d:	48 89 f8             	mov    %rdi,%rax
    4b40:	50                   	push   %rax
    4b41:	48 8b 48 18          	mov    0x18(%rax),%rcx
    4b45:	48 bb 08 00 00 00 00 	movabs $0x8,%rbx
    4b4c:	00 00 00 
    4b4f:	48 8b 41 00          	mov    0x0(%rcx),%rax
    4b53:	48 f7 e6             	mul    %rsi
    4b56:	48 01 c3             	add    %rax,%rbx
    4b59:	4c 89 c2             	mov    %r8,%rdx
    4b5c:	48 89 de             	mov    %rbx,%rsi
    4b5f:	5f                   	pop    %rdi
    4b60:	48 31 c9             	xor    %rcx,%rcx
    4b63:	40 8a 4d f0          	rex mov -0x10(%rbp),%cl
    4b67:	48 b8 80 30 59 55 55 	movabs $0x555555593080,%rax
    4b6e:	55 00 00 
    4b71:	48 8b 04 c8          	mov    (%rax,%rcx,8),%rax
    4b75:	ff d0                	call   *%rax
    4b77:	8b 7d a8             	mov    -0x58(%rbp),%edi
    4b7a:	ff 45 a8             	incl   -0x58(%rbp)
    4b7d:	48 31 ff             	xor    %rdi,%rdi
    4b80:	e9 8e fe ff ff       	jmp    0x4a13
    4b85:	48 31 ff             	xor    %rdi,%rdi
    4b88:	89 7d a8             	mov    %edi,-0x58(%rbp)
    4b8b:	48 8b 7d b0          	mov    -0x50(%rbp),%rdi
    4b8f:	48 81 ff 00 00 00 00 	cmp    $0x0,%rdi
    4b96:	0f 84 08 00 00 00    	je     0x4ba4
    4b9c:	48 ff 47 20          	incq   0x20(%rdi)
    4ba0:	48 ff 47 28          	incq   0x28(%rdi)
    4ba4:	48 31 f6             	xor    %rsi,%rsi
    4ba7:	48 8b 4d b0          	mov    -0x50(%rbp),%rcx
    4bab:	48 31 d2             	xor    %rdx,%rdx
    4bae:	48 39 d1             	cmp    %rdx,%rcx
    4bb1:	0f 84 25 00 00 00    	je     0x4bdc
    4bb7:	48 ff 49 20          	decq   0x20(%rcx)
    4bbb:	48 ff 49 28          	decq   0x28(%rcx)
    4bbf:	48 39 51 20          	cmp    %rdx,0x20(%rcx)
    4bc3:	0f 85 13 00 00 00    	jne    0x4bdc
    4bc9:	57                   	push   %rdi
    4bca:	56                   	push   %rsi
    4bcb:	48 b8 7f 95 58 55 55 	movabs $0x55555558957f,%rax
    4bd2:	55 00 00 
    4bd5:	48 89 cf             	mov    %rcx,%rdi
    4bd8:	ff d0                	call   *%rax
    4bda:	5e                   	pop    %rsi
    4bdb:	5f                   	pop    %rdi
    4bdc:	48 89 75 b0          	mov    %rsi,-0x50(%rbp)
    4be0:	48 31 f6             	xor    %rsi,%rsi
    4be3:	48 8b 4d b8          	mov    -0x48(%rbp),%rcx
    4be7:	48 31 d2             	xor    %rdx,%rdx
    4bea:	48 39 d1             	cmp    %rdx,%rcx
    4bed:	0f 84 25 00 00 00    	je     0x4c18
    4bf3:	48 ff 49 20          	decq   0x20(%rcx)
    4bf7:	48 ff 49 28          	decq   0x28(%rcx)
    4bfb:	48 39 51 20          	cmp    %rdx,0x20(%rcx)
    4bff:	0f 85 13 00 00 00    	jne    0x4c18
    4c05:	57                   	push   %rdi
    4c06:	56                   	push   %rsi
    4c07:	48 b8 7f 95 58 55 55 	movabs $0x55555558957f,%rax
    4c0e:	55 00 00 
    4c11:	48 89 cf             	mov    %rcx,%rdi
    4c14:	ff d0                	call   *%rax
    4c16:	5e                   	pop    %rsi
    4c17:	5f                   	pop    %rdi
    4c18:	48 89 75 b8          	mov    %rsi,-0x48(%rbp)
    4c1c:	48 89 f8             	mov    %rdi,%rax
    4c1f:	c9                   	leave  
    4c20:	c3                   	ret    
    4c21:	48 31 ff             	xor    %rdi,%rdi
    4c24:	48 8b 4d b0          	mov    -0x50(%rbp),%rcx
    4c28:	48 31 d2             	xor    %rdx,%rdx
    4c2b:	48 39 d1             	cmp    %rdx,%rcx
    4c2e:	0f 84 23 00 00 00    	je     0x4c57
    4c34:	48 ff 49 20          	decq   0x20(%rcx)
    4c38:	48 ff 49 28          	decq   0x28(%rcx)
    4c3c:	48 39 51 20          	cmp    %rdx,0x20(%rcx)
    4c40:	0f 85 11 00 00 00    	jne    0x4c57
    4c46:	57                   	push   %rdi
    4c47:	48 b8 7f 95 58 55 55 	movabs $0x55555558957f,%rax
    4c4e:	55 00 00 
    4c51:	48 89 cf             	mov    %rcx,%rdi
    4c54:	ff d0                	call   *%rax
    4c56:	5f                   	pop    %rdi
    4c57:	48 89 7d b0          	mov    %rdi,-0x50(%rbp)
    4c5b:	48 31 ff             	xor    %rdi,%rdi
    4c5e:	48 8b 4d b8          	mov    -0x48(%rbp),%rcx
    4c62:	48 31 d2             	xor    %rdx,%rdx
    4c65:	48 39 d1             	cmp    %rdx,%rcx
    4c68:	0f 84 23 00 00 00    	je     0x4c91
    4c6e:	48 ff 49 20          	decq   0x20(%rcx)
    4c72:	48 ff 49 28          	decq   0x28(%rcx)
    4c76:	48 39 51 20          	cmp    %rdx,0x20(%rcx)
    4c7a:	0f 85 11 00 00 00    	jne    0x4c91
    4c80:	57                   	push   %rdi
    4c81:	48 b8 7f 95 58 55 55 	movabs $0x55555558957f,%rax
    4c88:	55 00 00 
    4c8b:	48 89 cf             	mov    %rcx,%rdi
    4c8e:	ff d0                	call   *%rax
    4c90:	5f                   	pop    %rdi
    4c91:	48 89 7d b8          	mov    %rdi,-0x48(%rbp)
    4c95:	48 31 ff             	xor    %rdi,%rdi
    4c98:	48 89 f8             	mov    %rdi,%rax
    4c9b:	c9                   	leave  
    4c9c:	c3                   	ret    
    4c9d:	55                   	push   %rbp
    4c9e:	48 89 e5             	mov    %rsp,%rbp
    4ca1:	48 81 ec 48 00 00 00 	sub    $0x48,%rsp
    4ca8:	48 89 7d f8          	mov    %rdi,-0x8(%rbp)
    4cac:	48 b8 00 5d 69 55 55 	movabs $0x555555695d00,%rax
    4cb3:	55 00 00 
    4cb6:	48 8b 00             	mov    (%rax),%rax
    4cb9:	48 89 45 f0          	mov    %rax,-0x10(%rbp)
    4cbd:	48 31 c0             	xor    %rax,%rax
    4cc0:	48 89 45 b8          	mov    %rax,-0x48(%rbp)
    4cc4:	48 b8 80 5c 69 55 55 	movabs $0x555555695c80,%rax
    4ccb:	55 00 00 
    4cce:	48 8b 48 00          	mov    0x0(%rax),%rcx
    4cd2:	48 89 4d b8          	mov    %rcx,-0x48(%rbp)
    4cd6:	48 8b 7d b8          	mov    -0x48(%rbp),%rdi
    4cda:	48 81 ff 00 00 00 00 	cmp    $0x0,%rdi
    4ce1:	0f 84 08 00 00 00    	je     0x4cef
    4ce7:	48 ff 47 20          	incq   0x20(%rdi)
    4ceb:	48 ff 47 28          	incq   0x28(%rdi)
    4cef:	48 31 f6             	xor    %rsi,%rsi
    4cf2:	40 8a 75 f0          	mov    -0x10(%rbp),%sil
    4cf6:	48 89 f9             	mov    %rdi,%rcx
    4cf9:	48 ff 49 20          	decq   0x20(%rcx)
    4cfd:	48 ff 49 28          	decq   0x28(%rcx)
    4d01:	48 8b 51 18          	mov    0x18(%rcx),%rdx
    4d05:	48 81 c2 10 00 00 00 	add    $0x10,%rdx
    4d0c:	40 88 32             	mov    %sil,(%rdx)
    4d0f:	48 8b 7d b8          	mov    -0x48(%rbp),%rdi
    4d13:	48 81 ff 00 00 00 00 	cmp    $0x0,%rdi
    4d1a:	0f 84 08 00 00 00    	je     0x4d28
    4d20:	48 ff 47 20          	incq   0x20(%rdi)
    4d24:	48 ff 47 28          	incq   0x28(%rdi)
    4d28:	48 31 f6             	xor    %rsi,%rsi
    4d2b:	40 8a 75 f1          	mov    -0xf(%rbp),%sil
    4d2f:	48 89 f9             	mov    %rdi,%rcx
    4d32:	48 ff 49 20          	decq   0x20(%rcx)
    4d36:	48 ff 49 28          	decq   0x28(%rcx)
    4d3a:	48 8b 51 18          	mov    0x18(%rcx),%rdx
    4d3e:	48 81 c2 11 00 00 00 	add    $0x11,%rdx
    4d45:	40 88 32             	mov    %sil,(%rdx)
    4d48:	48 8b 7d b8          	mov    -0x48(%rbp),%rdi
    4d4c:	48 81 ff 00 00 00 00 	cmp    $0x0,%rdi
    4d53:	0f 84 08 00 00 00    	je     0x4d61
    4d59:	48 ff 47 20          	incq   0x20(%rdi)
    4d5d:	48 ff 47 28          	incq   0x28(%rdi)
    4d61:	57                   	push   %rdi
    4d62:	48 8b 7d f8          	mov    -0x8(%rbp),%rdi
    4d66:	48 be 00 00 00 00 00 	movabs $0x0,%rsi
    4d6d:	00 00 00 
    4d70:	48 b8 71 bf 58 55 55 	movabs $0x55555558bf71,%rax
    4d77:	55 00 00 
    4d7a:	ff d0                	call   *%rax
    4d7c:	5f                   	pop    %rdi
    4d7d:	48 c1 e0 30          	shl    $0x30,%rax
    4d81:	48 b9 f0 2f 00 00 00 	movabs $0x2ff0,%rcx
    4d88:	00 00 00 
    4d8b:	48 09 c8             	or     %rcx,%rax
    4d8e:	48 89 c6             	mov    %rax,%rsi
    4d91:	48 89 f9             	mov    %rdi,%rcx
    4d94:	48 ff 49 20          	decq   0x20(%rcx)
    4d98:	48 ff 49 28          	decq   0x28(%rcx)
    4d9c:	48 8b 51 18          	mov    0x18(%rcx),%rdx
    4da0:	48 81 c2 18 00 00 00 	add    $0x18,%rdx
    4da7:	48 89 32             	mov    %rsi,(%rdx)
    4daa:	48 8b 7d b8          	mov    -0x48(%rbp),%rdi
    4dae:	48 81 ff 00 00 00 00 	cmp    $0x0,%rdi
    4db5:	0f 84 08 00 00 00    	je     0x4dc3
    4dbb:	48 ff 47 20          	incq   0x20(%rdi)
    4dbf:	48 ff 47 28          	incq   0x28(%rdi)
    4dc3:	57                   	push   %rdi
    4dc4:	48 8b 7d f8          	mov    -0x8(%rbp),%rdi
    4dc8:	48 be 00 00 00 00 00 	movabs $0x0,%rsi
    4dcf:	00 00 00 
    4dd2:	48 b8 71 bf 58 55 55 	movabs $0x55555558bf71,%rax
    4dd9:	55 00 00 
    4ddc:	ff d0                	call   *%rax
    4dde:	5f                   	pop    %rdi
    4ddf:	48 c1 e0 30          	shl    $0x30,%rax
    4de3:	48 b9 5c 30 00 00 00 	movabs $0x305c,%rcx
    4dea:	00 00 00 
    4ded:	48 09 c8             	or     %rcx,%rax
    4df0:	48 89 c6             	mov    %rax,%rsi
    4df3:	48 89 f9             	mov    %rdi,%rcx
    4df6:	48 ff 49 20          	decq   0x20(%rcx)
    4dfa:	48 ff 49 28          	decq   0x28(%rcx)
    4dfe:	48 8b 51 18          	mov    0x18(%rcx),%rdx
    4e02:	48 81 c2 20 00 00 00 	add    $0x20,%rdx
    4e09:	48 89 32             	mov    %rsi,(%rdx)
    4e0c:	48 31 ff             	xor    %rdi,%rdi
    4e0f:	48 8b 4d b8          	mov    -0x48(%rbp),%rcx
    4e13:	48 31 d2             	xor    %rdx,%rdx
    4e16:	48 39 d1             	cmp    %rdx,%rcx
    4e19:	0f 84 23 00 00 00    	je     0x4e42
    4e1f:	48 ff 49 20          	decq   0x20(%rcx)
    4e23:	48 ff 49 28          	decq   0x28(%rcx)
    4e27:	48 39 51 20          	cmp    %rdx,0x20(%rcx)
    4e2b:	0f 85 11 00 00 00    	jne    0x4e42
    4e31:	57                   	push   %rdi
    4e32:	48 b8 7f 95 58 55 55 	movabs $0x55555558957f,%rax
    4e39:	55 00 00 
    4e3c:	48 89 cf             	mov    %rcx,%rdi
    4e3f:	ff d0                	call   *%rax
    4e41:	5f                   	pop    %rdi
    4e42:	48 89 7d b8          	mov    %rdi,-0x48(%rbp)
    4e46:	48 31 ff             	xor    %rdi,%rdi
    4e49:	48 31 c0             	xor    %rax,%rax
    4e4c:	c9                   	leave  
    4e4d:	c3                   	ret    
    4e4e:	55                   	push   %rbp
    4e4f:	48 89 e5             	mov    %rsp,%rbp
    4e52:	48 81 ec 50 00 00 00 	sub    $0x50,%rsp
    4e59:	48 89 7d f8          	mov    %rdi,-0x8(%rbp)
    4e5d:	48 b8 00 5d 69 55 55 	movabs $0x555555695d00,%rax
    4e64:	55 00 00 
    4e67:	48 8b 00             	mov    (%rax),%rax
    4e6a:	48 89 45 f0          	mov    %rax,-0x10(%rbp)
    4e6e:	48 31 c0             	xor    %rax,%rax
    4e71:	48 89 45 b8          	mov    %rax,-0x48(%rbp)
    4e75:	48 89 45 b0          	mov    %rax,-0x50(%rbp)
    4e79:	48 b8 80 5c 69 55 55 	movabs $0x555555695c80,%rax
    4e80:	55 00 00 
    4e83:	48 8b 48 00          	mov    0x0(%rax),%rcx
    4e87:	48 89 4d b8          	mov    %rcx,-0x48(%rbp)
    4e8b:	48 8b 48 08          	mov    0x8(%rax),%rcx
    4e8f:	48 89 4d b0          	mov    %rcx,-0x50(%rbp)
    4e93:	48 8b 45 b8          	mov    -0x48(%rbp),%rax
    4e97:	48 8b 40 18          	mov    0x18(%rax),%rax
    4e9b:	48 8b 48 10          	mov    0x10(%rax),%rcx
    4e9f:	48 89 4d f0          	mov    %rcx,-0x10(%rbp)
    4ea3:	48 31 ff             	xor    %rdi,%rdi
    4ea6:	48 8b 4d b8          	mov    -0x48(%rbp),%rcx
    4eaa:	48 31 d2             	xor    %rdx,%rdx
    4ead:	48 39 d1             	cmp    %rdx,%rcx
    4eb0:	0f 84 23 00 00 00    	je     0x4ed9
    4eb6:	48 ff 49 20          	decq   0x20(%rcx)
    4eba:	48 ff 49 28          	decq   0x28(%rcx)
    4ebe:	48 39 51 20          	cmp    %rdx,0x20(%rcx)
    4ec2:	0f 85 11 00 00 00    	jne    0x4ed9
    4ec8:	57                   	push   %rdi
    4ec9:	48 b8 7f 95 58 55 55 	movabs $0x55555558957f,%rax
    4ed0:	55 00 00 
    4ed3:	48 89 cf             	mov    %rcx,%rdi
    4ed6:	ff d0                	call   *%rax
    4ed8:	5f                   	pop    %rdi
    4ed9:	48 89 7d b8          	mov    %rdi,-0x48(%rbp)
    4edd:	48 31 ff             	xor    %rdi,%rdi
    4ee0:	40 8a 45 f0          	rex mov -0x10(%rbp),%al
    4ee4:	40 80 f8 0a          	rex cmp $0xa,%al
    4ee8:	0f 85 19 00 00 00    	jne    0x4f07
    4eee:	48 8b 4d b0          	mov    -0x50(%rbp),%rcx
    4ef2:	48 81 f9 00 00 00 00 	cmp    $0x0,%rcx
    4ef9:	0f 84 08 00 00 00    	je     0x4f07
    4eff:	48 ff 49 20          	decq   0x20(%rcx)
    4f03:	48 ff 49 28          	decq   0x28(%rcx)
    4f07:	48 89 7d b0          	mov    %rdi,-0x50(%rbp)
    4f0b:	40 80 f8 0a          	rex cmp $0xa,%al
    4f0f:	0f 85 15 00 00 00    	jne    0x4f2a
    4f15:	48 81 ff 00 00 00 00 	cmp    $0x0,%rdi
    4f1c:	0f 84 08 00 00 00    	je     0x4f2a
    4f22:	48 ff 47 20          	incq   0x20(%rdi)
    4f26:	48 ff 47 28          	incq   0x28(%rdi)
    4f2a:	48 31 ff             	xor    %rdi,%rdi
    4f2d:	48 89 f8             	mov    %rdi,%rax
    4f30:	c9                   	leave  
    4f31:	c3                   	ret    
    4f32:	55                   	push   %rbp
    4f33:	48 89 e5             	mov    %rsp,%rbp
    4f36:	48 81 ec 58 00 00 00 	sub    $0x58,%rsp
    4f3d:	48 89 7d f8          	mov    %rdi,-0x8(%rbp)
    4f41:	48 b8 00 5d 69 55 55 	movabs $0x555555695d00,%rax
    4f48:	55 00 00 
    4f4b:	48 8b 00             	mov    (%rax),%rax
    4f4e:	48 89 45 f0          	mov    %rax,-0x10(%rbp)
    4f52:	48 31 c0             	xor    %rax,%rax
    4f55:	48 89 45 b8          	mov    %rax,-0x48(%rbp)
    4f59:	48 89 45 b0          	mov    %rax,-0x50(%rbp)
    4f5d:	48 89 45 a8          	mov    %rax,-0x58(%rbp)
    4f61:	48 b8 80 5c 69 55 55 	movabs $0x555555695c80,%rax
    4f68:	55 00 00 
    4f6b:	48 8b 48 00          	mov    0x0(%rax),%rcx
    4f6f:	48 89 4d b8          	mov    %rcx,-0x48(%rbp)
    4f73:	48 8b 48 08          	mov    0x8(%rax),%rcx
    4f77:	48 89 4d b0          	mov    %rcx,-0x50(%rbp)
    4f7b:	48 8b 48 10          	mov    0x10(%rax),%rcx
    4f7f:	48 89 4d a8          	mov    %rcx,-0x58(%rbp)
    4f83:	48 8b 45 b8          	mov    -0x48(%rbp),%rax
    4f87:	48 8b 40 18          	mov    0x18(%rax),%rax
    4f8b:	48 8b 48 10          	mov    0x10(%rax),%rcx
    4f8f:	48 89 4d f0          	mov    %rcx,-0x10(%rbp)
    4f93:	48 31 ff             	xor    %rdi,%rdi
    4f96:	48 8b 4d b8          	mov    -0x48(%rbp),%rcx
    4f9a:	48 31 d2             	xor    %rdx,%rdx
    4f9d:	48 39 d1             	cmp    %rdx,%rcx
    4fa0:	0f 84 23 00 00 00    	je     0x4fc9
    4fa6:	48 ff 49 20          	decq   0x20(%rcx)
    4faa:	48 ff 49 28          	decq   0x28(%rcx)
    4fae:	48 39 51 20          	cmp    %rdx,0x20(%rcx)
    4fb2:	0f 85 11 00 00 00    	jne    0x4fc9
    4fb8:	57                   	push   %rdi
    4fb9:	48 b8 7f 95 58 55 55 	movabs $0x55555558957f,%rax
    4fc0:	55 00 00 
    4fc3:	48 89 cf             	mov    %rcx,%rdi
    4fc6:	ff d0                	call   *%rax
    4fc8:	5f                   	pop    %rdi
    4fc9:	48 89 7d b8          	mov    %rdi,-0x48(%rbp)
    4fcd:	48 31 ff             	xor    %rdi,%rdi
    4fd0:	40 8a 45 f1          	rex mov -0xf(%rbp),%al
    4fd4:	40 80 f8 0a          	rex cmp $0xa,%al
    4fd8:	0f 85 19 00 00 00    	jne    0x4ff7
    4fde:	48 8b 4d a8          	mov    -0x58(%rbp),%rcx
    4fe2:	48 81 f9 00 00 00 00 	cmp    $0x0,%rcx
    4fe9:	0f 84 08 00 00 00    	je     0x4ff7
    4fef:	48 ff 49 20          	decq   0x20(%rcx)
    4ff3:	48 ff 49 28          	decq   0x28(%rcx)
    4ff7:	48 89 7d a8          	mov    %rdi,-0x58(%rbp)
    4ffb:	40 80 f8 0a          	rex cmp $0xa,%al
    4fff:	0f 85 15 00 00 00    	jne    0x501a
    5005:	48 81 ff 00 00 00 00 	cmp    $0x0,%rdi
    500c:	0f 84 08 00 00 00    	je     0x501a
    5012:	48 ff 47 20          	incq   0x20(%rdi)
    5016:	48 ff 47 28          	incq   0x28(%rdi)
    501a:	48 31 ff             	xor    %rdi,%rdi
    501d:	40 8a 45 f0          	rex mov -0x10(%rbp),%al
    5021:	40 80 f8 0a          	rex cmp $0xa,%al
    5025:	0f 85 19 00 00 00    	jne    0x5044
    502b:	48 8b 4d b0          	mov    -0x50(%rbp),%rcx
    502f:	48 81 f9 00 00 00 00 	cmp    $0x0,%rcx
    5036:	0f 84 08 00 00 00    	je     0x5044
    503c:	48 ff 49 20          	decq   0x20(%rcx)
    5040:	48 ff 49 28          	decq   0x28(%rcx)
    5044:	48 89 7d b0          	mov    %rdi,-0x50(%rbp)
    5048:	40 80 f8 0a          	rex cmp $0xa,%al
    504c:	0f 85 15 00 00 00    	jne    0x5067
    5052:	48 81 ff 00 00 00 00 	cmp    $0x0,%rdi
    5059:	0f 84 08 00 00 00    	je     0x5067
    505f:	48 ff 47 20          	incq   0x20(%rdi)
    5063:	48 ff 47 28          	incq   0x28(%rdi)
    5067:	48 31 ff             	xor    %rdi,%rdi
    506a:	48 31 c0             	xor    %rax,%rax
    506d:	c9                   	leave  
    506e:	c3                   	ret    
    506f:	55                   	push   %rbp
    5070:	48 89 e5             	mov    %rsp,%rbp
    5073:	48 81 ec 48 00 00 00 	sub    $0x48,%rsp
    507a:	48 89 7d f8          	mov    %rdi,-0x8(%rbp)
    507e:	48 b8 00 5d 69 55 55 	movabs $0x555555695d00,%rax
    5085:	55 00 00 
    5088:	48 8b 00             	mov    (%rax),%rax
    508b:	48 89 45 f0          	mov    %rax,-0x10(%rbp)
    508f:	48 31 c0             	xor    %rax,%rax
    5092:	48 89 45 b8          	mov    %rax,-0x48(%rbp)
    5096:	48 b8 80 5c 69 55 55 	movabs $0x555555695c80,%rax
    509d:	55 00 00 
    50a0:	48 8b 48 00          	mov    0x0(%rax),%rcx
    50a4:	48 89 4d b8          	mov    %rcx,-0x48(%rbp)
    50a8:	48 31 ff             	xor    %rdi,%rdi
    50ab:	48 b8 00 5d 69 55 55 	movabs $0x555555695d00,%rax
    50b2:	55 00 00 
    50b5:	40 88 78 00          	mov    %dil,0x0(%rax)
    50b9:	48 8b 7d b8          	mov    -0x48(%rbp),%rdi
    50bd:	48 81 ff 00 00 00 00 	cmp    $0x0,%rdi
    50c4:	0f 84 08 00 00 00    	je     0x50d2
    50ca:	48 ff 47 20          	incq   0x20(%rdi)
    50ce:	48 ff 47 28          	incq   0x28(%rdi)
    50d2:	48 b8 80 5c 69 55 55 	movabs $0x555555695c80,%rax
    50d9:	55 00 00 
    50dc:	48 89 78 00          	mov    %rdi,0x0(%rax)
    50e0:	48 8b 4d f8          	mov    -0x8(%rbp),%rcx
    50e4:	48 8b 51 10          	mov    0x10(%rcx),%rdx
    50e8:	48 8b 42 00          	mov    0x0(%rdx),%rax
    50ec:	48 89 c7             	mov    %rax,%rdi
    50ef:	48 8b 40 68          	mov    0x68(%rax),%rax
    50f3:	48 b9 7c 20 00 00 00 	movabs $0x207c,%rcx
    50fa:	00 00 00 
    50fd:	48 8b 04 c8          	mov    (%rax,%rcx,8),%rax
    5101:	ff d0                	call   *%rax
    5103:	48 89 c7             	mov    %rax,%rdi
    5106:	48 31 ff             	xor    %rdi,%rdi
    5109:	48 8b 7d b8          	mov    -0x48(%rbp),%rdi
    510d:	48 81 ff 00 00 00 00 	cmp    $0x0,%rdi
    5114:	0f 84 08 00 00 00    	je     0x5122
    511a:	48 ff 47 20          	incq   0x20(%rdi)
    511e:	48 ff 47 28          	incq   0x28(%rdi)
    5122:	57                   	push   %rdi
    5123:	48 8b 7d f8          	mov    -0x8(%rbp),%rdi
    5127:	48 be 00 00 00 00 00 	movabs $0x0,%rsi
    512e:	00 00 00 
    5131:	48 b8 71 bf 58 55 55 	movabs $0x55555558bf71,%rax
    5138:	55 00 00 
    513b:	ff d0                	call   *%rax
    513d:	5f                   	pop    %rdi
    513e:	48 c1 e0 30          	shl    $0x30,%rax
    5142:	48 b9 6c 35 00 00 00 	movabs $0x356c,%rcx
    5149:	00 00 00 
    514c:	48 09 c8             	or     %rcx,%rax
    514f:	48 89 c6             	mov    %rax,%rsi
    5152:	48 89 f9             	mov    %rdi,%rcx
    5155:	48 ff 49 20          	decq   0x20(%rcx)
    5159:	48 ff 49 28          	decq   0x28(%rcx)
    515d:	48 8b 51 18          	mov    0x18(%rcx),%rdx
    5161:	48 81 c2 40 00 00 00 	add    $0x40,%rdx
    5168:	48 89 32             	mov    %rsi,(%rdx)
    516b:	48 31 ff             	xor    %rdi,%rdi
    516e:	48 8b 4d b8          	mov    -0x48(%rbp),%rcx
    5172:	48 31 d2             	xor    %rdx,%rdx
    5175:	48 39 d1             	cmp    %rdx,%rcx
    5178:	0f 84 23 00 00 00    	je     0x51a1
    517e:	48 ff 49 20          	decq   0x20(%rcx)
    5182:	48 ff 49 28          	decq   0x28(%rcx)
    5186:	48 39 51 20          	cmp    %rdx,0x20(%rcx)
    518a:	0f 85 11 00 00 00    	jne    0x51a1
    5190:	57                   	push   %rdi
    5191:	48 b8 7f 95 58 55 55 	movabs $0x55555558957f,%rax
    5198:	55 00 00 
    519b:	48 89 cf             	mov    %rcx,%rdi
    519e:	ff d0                	call   *%rax
    51a0:	5f                   	pop    %rdi
    51a1:	48 89 7d b8          	mov    %rdi,-0x48(%rbp)
    51a5:	48 31 ff             	xor    %rdi,%rdi
    51a8:	48 31 c0             	xor    %rax,%rax
    51ab:	c9                   	leave  
    51ac:	c3                   	ret    
    51ad:	55                   	push   %rbp
    51ae:	48 89 e5             	mov    %rsp,%rbp
    51b1:	48 81 ec 58 00 00 00 	sub    $0x58,%rsp
    51b8:	48 89 7d f8          	mov    %rdi,-0x8(%rbp)
    51bc:	48 b8 00 5d 69 55 55 	movabs $0x555555695d00,%rax
    51c3:	55 00 00 
    51c6:	48 8b 00             	mov    (%rax),%rax
    51c9:	48 89 45 f0          	mov    %rax,-0x10(%rbp)
    51cd:	48 31 c0             	xor    %rax,%rax
    51d0:	48 89 45 b8          	mov    %rax,-0x48(%rbp)
    51d4:	48 89 45 b0          	mov    %rax,-0x50(%rbp)
    51d8:	48 89 45 a8          	mov    %rax,-0x58(%rbp)
    51dc:	48 b8 80 5c 69 55 55 	movabs $0x555555695c80,%rax
    51e3:	55 00 00 
    51e6:	48 8b 48 00          	mov    0x0(%rax),%rcx
    51ea:	48 89 4d b8          	mov    %rcx,-0x48(%rbp)
    51ee:	48 8b 48 08          	mov    0x8(%rax),%rcx
    51f2:	48 89 4d b0          	mov    %rcx,-0x50(%rbp)
    51f6:	48 8b 48 10          	mov    0x10(%rax),%rcx
    51fa:	48 89 4d a8          	mov    %rcx,-0x58(%rbp)
    51fe:	48 31 ff             	xor    %rdi,%rdi
    5201:	48 b8 00 5d 69 55 55 	movabs $0x555555695d00,%rax
    5208:	55 00 00 
    520b:	40 88 78 00          	mov    %dil,0x0(%rax)
    520f:	48 8b 7d b8          	mov    -0x48(%rbp),%rdi
    5213:	48 81 ff 00 00 00 00 	cmp    $0x0,%rdi
    521a:	0f 84 08 00 00 00    	je     0x5228
    5220:	48 ff 47 20          	incq   0x20(%rdi)
    5224:	48 ff 47 28          	incq   0x28(%rdi)
    5228:	48 8b 75 b0          	mov    -0x50(%rbp),%rsi
    522c:	4c 8b 45 a8          	mov    -0x58(%rbp),%r8
    5230:	48 b8 80 5c 69 55 55 	movabs $0x555555695c80,%rax
    5237:	55 00 00 
    523a:	48 89 78 00          	mov    %rdi,0x0(%rax)
    523e:	48 89 70 08          	mov    %rsi,0x8(%rax)
    5242:	4c 89 40 10          	mov    %r8,0x10(%rax)
    5246:	48 8b 4d f8          	mov    -0x8(%rbp),%rcx
    524a:	48 8b 51 10          	mov    0x10(%rcx),%rdx
    524e:	48 8b 42 00          	mov    0x0(%rdx),%rax
    5252:	48 89 c7             	mov    %rax,%rdi
    5255:	48 8b 40 68          	mov    0x68(%rax),%rax
    5259:	48 b9 b0 21 00 00 00 	movabs $0x21b0,%rcx
    5260:	00 00 00 
    5263:	48 8b 04 c8          	mov    (%rax,%rcx,8),%rax
    5267:	ff d0                	call   *%rax
    5269:	48 89 c7             	mov    %rax,%rdi
    526c:	48 31 ff             	xor    %rdi,%rdi
    526f:	48 8b 7d b8          	mov    -0x48(%rbp),%rdi
    5273:	48 81 ff 00 00 00 00 	cmp    $0x0,%rdi
    527a:	0f 84 08 00 00 00    	je     0x5288
    5280:	48 ff 47 20          	incq   0x20(%rdi)
    5284:	48 ff 47 28          	incq   0x28(%rdi)
    5288:	57                   	push   %rdi
    5289:	48 8b 7d f8          	mov    -0x8(%rbp),%rdi
    528d:	48 be 00 00 00 00 00 	movabs $0x0,%rsi
    5294:	00 00 00 
    5297:	48 b8 71 bf 58 55 55 	movabs $0x55555558bf71,%rax
    529e:	55 00 00 
    52a1:	ff d0                	call   *%rax
    52a3:	5f                   	pop    %rdi
    52a4:	48 c1 e0 30          	shl    $0x30,%rax
    52a8:	48 b9 6c 35 00 00 00 	movabs $0x356c,%rcx
    52af:	00 00 00 
    52b2:	48 09 c8             	or     %rcx,%rax
    52b5:	48 89 c6             	mov    %rax,%rsi
    52b8:	48 89 f9             	mov    %rdi,%rcx
    52bb:	48 ff 49 20          	decq   0x20(%rcx)
    52bf:	48 ff 49 28          	decq   0x28(%rcx)
    52c3:	48 8b 51 18          	mov    0x18(%rcx),%rdx
    52c7:	48 81 c2 40 00 00 00 	add    $0x40,%rdx
    52ce:	48 89 32             	mov    %rsi,(%rdx)
    52d1:	48 31 ff             	xor    %rdi,%rdi
    52d4:	48 8b 4d b8          	mov    -0x48(%rbp),%rcx
    52d8:	48 31 d2             	xor    %rdx,%rdx
    52db:	48 39 d1             	cmp    %rdx,%rcx
    52de:	0f 84 23 00 00 00    	je     0x5307
    52e4:	48 ff 49 20          	decq   0x20(%rcx)
    52e8:	48 ff 49 28          	decq   0x28(%rcx)
    52ec:	48 39 51 20          	cmp    %rdx,0x20(%rcx)
    52f0:	0f 85 11 00 00 00    	jne    0x5307
    52f6:	57                   	push   %rdi
    52f7:	48 b8 7f 95 58 55 55 	movabs $0x55555558957f,%rax
    52fe:	55 00 00 
    5301:	48 89 cf             	mov    %rcx,%rdi
    5304:	ff d0                	call   *%rax
    5306:	5f                   	pop    %rdi
    5307:	48 89 7d b8          	mov    %rdi,-0x48(%rbp)
    530b:	48 31 ff             	xor    %rdi,%rdi
    530e:	40 88 7d a8          	mov    %dil,-0x58(%rbp)
    5312:	48 31 ff             	xor    %rdi,%rdi
    5315:	89 7d b0             	mov    %edi,-0x50(%rbp)
    5318:	48 31 ff             	xor    %rdi,%rdi
    531b:	48 31 c0             	xor    %rax,%rax
    531e:	c9                   	leave  
    531f:	c3                   	ret    
    5320:	55                   	push   %rbp
    5321:	48 89 e5             	mov    %rsp,%rbp
    5324:	48 81 ec 58 00 00 00 	sub    $0x58,%rsp
    532b:	48 89 7d f8          	mov    %rdi,-0x8(%rbp)
    532f:	48 b8 00 5d 69 55 55 	movabs $0x555555695d00,%rax
    5336:	55 00 00 
    5339:	48 8b 00             	mov    (%rax),%rax
    533c:	48 89 45 f0          	mov    %rax,-0x10(%rbp)
    5340:	48 31 c0             	xor    %rax,%rax
    5343:	48 89 45 b8          	mov    %rax,-0x48(%rbp)
    5347:	48 89 45 b0          	mov    %rax,-0x50(%rbp)
    534b:	48 89 45 a8          	mov    %rax,-0x58(%rbp)
    534f:	48 b8 80 5c 69 55 55 	movabs $0x555555695c80,%rax
    5356:	55 00 00 
    5359:	48 8b 48 00          	mov    0x0(%rax),%rcx
    535d:	48 89 4d b8          	mov    %rcx,-0x48(%rbp)
    5361:	48 8b 48 08          	mov    0x8(%rax),%rcx
    5365:	48 89 4d b0          	mov    %rcx,-0x50(%rbp)
    5369:	48 31 ff             	xor    %rdi,%rdi
    536c:	48 b8 00 5d 69 55 55 	movabs $0x555555695d00,%rax
    5373:	55 00 00 
    5376:	40 88 78 00          	mov    %dil,0x0(%rax)
    537a:	48 8b 7d b8          	mov    -0x48(%rbp),%rdi
    537e:	48 81 ff 00 00 00 00 	cmp    $0x0,%rdi
    5385:	0f 84 08 00 00 00    	je     0x5393
    538b:	48 ff 47 20          	incq   0x20(%rdi)
    538f:	48 ff 47 28          	incq   0x28(%rdi)
    5393:	48 b8 80 5c 69 55 55 	movabs $0x555555695c80,%rax
    539a:	55 00 00 
    539d:	48 89 78 00          	mov    %rdi,0x0(%rax)
    53a1:	48 8b 4d f8          	mov    -0x8(%rbp),%rcx
    53a5:	48 8b 51 10          	mov    0x10(%rcx),%rdx
    53a9:	48 8b 42 00          	mov    0x0(%rdx),%rax
    53ad:	48 89 c7             	mov    %rax,%rdi
    53b0:	48 8b 40 68          	mov    0x68(%rax),%rax
    53b4:	48 b9 7c 20 00 00 00 	movabs $0x207c,%rcx
    53bb:	00 00 00 
    53be:	48 8b 04 c8          	mov    (%rax,%rcx,8),%rax
    53c2:	ff d0                	call   *%rax
    53c4:	48 89 c7             	mov    %rax,%rdi
    53c7:	48 31 ff             	xor    %rdi,%rdi
    53ca:	48 8b 7d b8          	mov    -0x48(%rbp),%rdi
    53ce:	48 81 ff 00 00 00 00 	cmp    $0x0,%rdi
    53d5:	0f 84 08 00 00 00    	je     0x53e3
    53db:	48 ff 47 20          	incq   0x20(%rdi)
    53df:	48 ff 47 28          	incq   0x28(%rdi)
    53e3:	57                   	push   %rdi
    53e4:	48 8b 7d f8          	mov    -0x8(%rbp),%rdi
    53e8:	48 be 00 00 00 00 00 	movabs $0x0,%rsi
    53ef:	00 00 00 
    53f2:	48 b8 71 bf 58 55 55 	movabs $0x55555558bf71,%rax
    53f9:	55 00 00 
    53fc:	ff d0                	call   *%rax
    53fe:	5f                   	pop    %rdi
    53ff:	48 c1 e0 30          	shl    $0x30,%rax
    5403:	48 b9 6c 35 00 00 00 	movabs $0x356c,%rcx
    540a:	00 00 00 
    540d:	48 09 c8             	or     %rcx,%rax
    5410:	48 89 c6             	mov    %rax,%rsi
    5413:	48 89 f9             	mov    %rdi,%rcx
    5416:	48 ff 49 20          	decq   0x20(%rcx)
    541a:	48 ff 49 28          	decq   0x28(%rcx)
    541e:	48 8b 51 18          	mov    0x18(%rcx),%rdx
    5422:	48 81 c2 40 00 00 00 	add    $0x40,%rdx
    5429:	48 89 32             	mov    %rsi,(%rdx)
    542c:	48 31 ff             	xor    %rdi,%rdi
    542f:	89 7d a8             	mov    %edi,-0x58(%rbp)
    5432:	48 8b 7d a8          	mov    -0x58(%rbp),%rdi
    5436:	48 8b 75 b0          	mov    -0x50(%rbp),%rsi
    543a:	48 81 fe 00 00 00 00 	cmp    $0x0,%rsi
    5441:	0f 84 08 00 00 00    	je     0x544f
    5447:	48 ff 46 20          	incq   0x20(%rsi)
    544b:	48 ff 46 28          	incq   0x28(%rsi)
    544f:	49 89 f0             	mov    %rsi,%r8
    5452:	48 81 fe 00 00 00 00 	cmp    $0x0,%rsi
    5459:	0f 84 08 00 00 00    	je     0x5467
    545f:	48 ff 46 20          	incq   0x20(%rsi)
    5463:	48 ff 46 28          	incq   0x28(%rsi)
    5467:	48 b8 80 5c 69 55 55 	movabs $0x555555695c80,%rax
    546e:	55 00 00 
    5471:	4c 89 40 00          	mov    %r8,0x0(%rax)
    5475:	48 89 f1             	mov    %rsi,%rcx
    5478:	48 ff 49 20          	decq   0x20(%rcx)
    547c:	48 ff 49 28          	decq   0x28(%rcx)
    5480:	48 8b 51 18          	mov    0x18(%rcx),%rdx
    5484:	48 81 c2 30 00 00 00 	add    $0x30,%rdx
    548b:	48 8b 32             	mov    (%rdx),%rsi
    548e:	57                   	push   %rdi
    548f:	48 89 f7             	mov    %rsi,%rdi
    5492:	48 b8 3f bd 58 55 55 	movabs $0x55555558bd3f,%rax
    5499:	55 00 00 
    549c:	ff d0                	call   *%rax
    549e:	5f                   	pop    %rdi
    549f:	48 89 c6             	mov    %rax,%rsi
    54a2:	39 f7                	cmp    %esi,%edi
    54a4:	0f 82 08 00 00 00    	jb     0x54b2
    54aa:	48 31 ff             	xor    %rdi,%rdi
    54ad:	e9 0a 00 00 00       	jmp    0x54bc
    54b2:	48 bf 01 00 00 00 00 	movabs $0x1,%rdi
    54b9:	00 00 00 
    54bc:	48 81 ff 00 00 00 00 	cmp    $0x0,%rdi
    54c3:	0f 84 d6 00 00 00    	je     0x559f
    54c9:	48 8b 7d b8          	mov    -0x48(%rbp),%rdi
    54cd:	48 81 ff 00 00 00 00 	cmp    $0x0,%rdi
    54d4:	0f 84 08 00 00 00    	je     0x54e2
    54da:	48 ff 47 20          	incq   0x20(%rdi)
    54de:	48 ff 47 28          	incq   0x28(%rdi)
    54e2:	48 8b 75 b0          	mov    -0x50(%rbp),%rsi
    54e6:	48 81 fe 00 00 00 00 	cmp    $0x0,%rsi
    54ed:	0f 84 08 00 00 00    	je     0x54fb
    54f3:	48 ff 46 20          	incq   0x20(%rsi)
    54f7:	48 ff 46 28          	incq   0x28(%rsi)
    54fb:	49 89 f0             	mov    %rsi,%r8
    54fe:	48 81 fe 00 00 00 00 	cmp    $0x0,%rsi
    5505:	0f 84 08 00 00 00    	je     0x5513
    550b:	48 ff 46 20          	incq   0x20(%rsi)
    550f:	48 ff 46 28          	incq   0x28(%rsi)
    5513:	4c 8b 4d a8          	mov    -0x58(%rbp),%r9
    5517:	48 b8 80 5c 69 55 55 	movabs $0x555555695c80,%rax
    551e:	55 00 00 
    5521:	4c 89 40 00          	mov    %r8,0x0(%rax)
    5525:	4c 89 48 08          	mov    %r9,0x8(%rax)
    5529:	48 89 f1             	mov    %rsi,%rcx
    552c:	48 ff 49 20          	decq   0x20(%rcx)
    5530:	48 ff 49 28          	decq   0x28(%rcx)
    5534:	48 8b 51 18          	mov    0x18(%rcx),%rdx
    5538:	48 81 c2 18 00 00 00 	add    $0x18,%rdx
    553f:	48 8b 32             	mov    (%rdx),%rsi
    5542:	57                   	push   %rdi
    5543:	48 89 f7             	mov    %rsi,%rdi
    5546:	48 b8 3f bd 58 55 55 	movabs $0x55555558bd3f,%rax
    554d:	55 00 00 
    5550:	ff d0                	call   *%rax
    5552:	5f                   	pop    %rdi
    5553:	48 89 c6             	mov    %rax,%rsi
    5556:	48 b8 80 5c 69 55 55 	movabs $0x555555695c80,%rax
    555d:	55 00 00 
    5560:	48 89 78 00          	mov    %rdi,0x0(%rax)
    5564:	48 89 70 08          	mov    %rsi,0x8(%rax)
    5568:	48 8b 4d f8          	mov    -0x8(%rbp),%rcx
    556c:	48 8b 51 10          	mov    0x10(%rcx),%rdx
    5570:	48 8b 42 00          	mov    0x0(%rdx),%rax
    5574:	48 89 c7             	mov    %rax,%rdi
    5577:	48 8b 40 68          	mov    0x68(%rax),%rax
    557b:	48 b9 6c 23 00 00 00 	movabs $0x236c,%rcx
    5582:	00 00 00 
    5585:	48 8b 04 c8          	mov    (%rax,%rcx,8),%rax
    5589:	ff d0                	call   *%rax
    558b:	48 89 c7             	mov    %rax,%rdi
    558e:	48 31 ff             	xor    %rdi,%rdi
    5591:	8b 7d a8             	mov    -0x58(%rbp),%edi
    5594:	ff 45 a8             	incl   -0x58(%rbp)
    5597:	48 31 ff             	xor    %rdi,%rdi
    559a:	e9 93 fe ff ff       	jmp    0x5432
    559f:	48 31 ff             	xor    %rdi,%rdi
    55a2:	89 7d a8             	mov    %edi,-0x58(%rbp)
    55a5:	48 31 ff             	xor    %rdi,%rdi
    55a8:	48 8b 4d b8          	mov    -0x48(%rbp),%rcx
    55ac:	48 31 d2             	xor    %rdx,%rdx
    55af:	48 39 d1             	cmp    %rdx,%rcx
    55b2:	0f 84 23 00 00 00    	je     0x55db
    55b8:	48 ff 49 20          	decq   0x20(%rcx)
    55bc:	48 ff 49 28          	decq   0x28(%rcx)
    55c0:	48 39 51 20          	cmp    %rdx,0x20(%rcx)
    55c4:	0f 85 11 00 00 00    	jne    0x55db
    55ca:	57                   	push   %rdi
    55cb:	48 b8 7f 95 58 55 55 	movabs $0x55555558957f,%rax
    55d2:	55 00 00 
    55d5:	48 89 cf             	mov    %rcx,%rdi
    55d8:	ff d0                	call   *%rax
    55da:	5f                   	pop    %rdi
    55db:	48 89 7d b8          	mov    %rdi,-0x48(%rbp)
    55df:	48 31 ff             	xor    %rdi,%rdi
    55e2:	48 8b 4d b0          	mov    -0x50(%rbp),%rcx
    55e6:	48 31 d2             	xor    %rdx,%rdx
    55e9:	48 39 d1             	cmp    %rdx,%rcx
    55ec:	0f 84 23 00 00 00    	je     0x5615
    55f2:	48 ff 49 20          	decq   0x20(%rcx)
    55f6:	48 ff 49 28          	decq   0x28(%rcx)
    55fa:	48 39 51 20          	cmp    %rdx,0x20(%rcx)
    55fe:	0f 85 11 00 00 00    	jne    0x5615
    5604:	57                   	push   %rdi
    5605:	48 b8 7f 95 58 55 55 	movabs $0x55555558957f,%rax
    560c:	55 00 00 
    560f:	48 89 cf             	mov    %rcx,%rdi
    5612:	ff d0                	call   *%rax
    5614:	5f                   	pop    %rdi
    5615:	48 89 7d b0          	mov    %rdi,-0x50(%rbp)
    5619:	48 31 ff             	xor    %rdi,%rdi
    561c:	48 31 c0             	xor    %rax,%rax
    561f:	c9                   	leave  
    5620:	c3                   	ret    
    5621:	55                   	push   %rbp
    5622:	48 89 e5             	mov    %rsp,%rbp
    5625:	48 81 ec 58 00 00 00 	sub    $0x58,%rsp
    562c:	48 89 7d f8          	mov    %rdi,-0x8(%rbp)
    5630:	48 b8 00 5d 69 55 55 	movabs $0x555555695d00,%rax
    5637:	55 00 00 
    563a:	48 8b 00             	mov    (%rax),%rax
    563d:	48 89 45 f0          	mov    %rax,-0x10(%rbp)
    5641:	48 31 c0             	xor    %rax,%rax
    5644:	48 89 45 b8          	mov    %rax,-0x48(%rbp)
    5648:	48 89 45 b0          	mov    %rax,-0x50(%rbp)
    564c:	48 89 45 a8          	mov    %rax,-0x58(%rbp)
    5650:	48 b8 80 5c 69 55 55 	movabs $0x555555695c80,%rax
    5657:	55 00 00 
    565a:	48 8b 48 00          	mov    0x0(%rax),%rcx
    565e:	48 89 4d b8          	mov    %rcx,-0x48(%rbp)
    5662:	48 8b 48 08          	mov    0x8(%rax),%rcx
    5666:	48 89 4d b0          	mov    %rcx,-0x50(%rbp)
    566a:	48 31 ff             	xor    %rdi,%rdi
    566d:	89 7d a8             	mov    %edi,-0x58(%rbp)
    5670:	48 8b 7d a8          	mov    -0x58(%rbp),%rdi
    5674:	48 8b 75 b0          	mov    -0x50(%rbp),%rsi
    5678:	48 81 fe 00 00 00 00 	cmp    $0x0,%rsi
    567f:	0f 84 08 00 00 00    	je     0x568d
    5685:	48 ff 46 20          	incq   0x20(%rsi)
    5689:	48 ff 46 28          	incq   0x28(%rsi)
    568d:	49 89 f0             	mov    %rsi,%r8
    5690:	48 81 fe 00 00 00 00 	cmp    $0x0,%rsi
    5697:	0f 84 08 00 00 00    	je     0x56a5
    569d:	48 ff 46 20          	incq   0x20(%rsi)
    56a1:	48 ff 46 28          	incq   0x28(%rsi)
    56a5:	48 b8 80 5c 69 55 55 	movabs $0x555555695c80,%rax
    56ac:	55 00 00 
    56af:	4c 89 40 00          	mov    %r8,0x0(%rax)
    56b3:	48 89 f1             	mov    %rsi,%rcx
    56b6:	48 ff 49 20          	decq   0x20(%rcx)
    56ba:	48 ff 49 28          	decq   0x28(%rcx)
    56be:	48 8b 51 18          	mov    0x18(%rcx),%rdx
    56c2:	48 81 c2 30 00 00 00 	add    $0x30,%rdx
    56c9:	48 8b 32             	mov    (%rdx),%rsi
    56cc:	57                   	push   %rdi
    56cd:	48 89 f7             	mov    %rsi,%rdi
    56d0:	48 b8 3f bd 58 55 55 	movabs $0x55555558bd3f,%rax
    56d7:	55 00 00 
    56da:	ff d0                	call   *%rax
    56dc:	5f                   	pop    %rdi
    56dd:	48 89 c6             	mov    %rax,%rsi
    56e0:	39 f7                	cmp    %esi,%edi
    56e2:	0f 82 08 00 00 00    	jb     0x56f0
    56e8:	48 31 ff             	xor    %rdi,%rdi
    56eb:	e9 0a 00 00 00       	jmp    0x56fa
    56f0:	48 bf 01 00 00 00 00 	movabs $0x1,%rdi
    56f7:	00 00 00 
    56fa:	48 81 ff 00 00 00 00 	cmp    $0x0,%rdi
    5701:	0f 84 d6 00 00 00    	je     0x57dd
    5707:	48 8b 7d b8          	mov    -0x48(%rbp),%rdi
    570b:	48 81 ff 00 00 00 00 	cmp    $0x0,%rdi
    5712:	0f 84 08 00 00 00    	je     0x5720
    5718:	48 ff 47 20          	incq   0x20(%rdi)
    571c:	48 ff 47 28          	incq   0x28(%rdi)
    5720:	48 8b 75 b0          	mov    -0x50(%rbp),%rsi
    5724:	48 81 fe 00 00 00 00 	cmp    $0x0,%rsi
    572b:	0f 84 08 00 00 00    	je     0x5739
    5731:	48 ff 46 20          	incq   0x20(%rsi)
    5735:	48 ff 46 28          	incq   0x28(%rsi)
    5739:	49 89 f0             	mov    %rsi,%r8
    573c:	48 81 fe 00 00 00 00 	cmp    $0x0,%rsi
    5743:	0f 84 08 00 00 00    	je     0x5751
    5749:	48 ff 46 20          	incq   0x20(%rsi)
    574d:	48 ff 46 28          	incq   0x28(%rsi)
    5751:	4c 8b 4d a8          	mov    -0x58(%rbp),%r9
    5755:	48 b8 80 5c 69 55 55 	movabs $0x555555695c80,%rax
    575c:	55 00 00 
    575f:	4c 89 40 00          	mov    %r8,0x0(%rax)
    5763:	4c 89 48 08          	mov    %r9,0x8(%rax)
    5767:	48 89 f1             	mov    %rsi,%rcx
    576a:	48 ff 49 20          	decq   0x20(%rcx)
    576e:	48 ff 49 28          	decq   0x28(%rcx)
    5772:	48 8b 51 18          	mov    0x18(%rcx),%rdx
    5776:	48 81 c2 18 00 00 00 	add    $0x18,%rdx
    577d:	48 8b 32             	mov    (%rdx),%rsi
    5780:	57                   	push   %rdi
    5781:	48 89 f7             	mov    %rsi,%rdi
    5784:	48 b8 3f bd 58 55 55 	movabs $0x55555558bd3f,%rax
    578b:	55 00 00 
    578e:	ff d0                	call   *%rax
    5790:	5f                   	pop    %rdi
    5791:	48 89 c6             	mov    %rax,%rsi
    5794:	48 b8 80 5c 69 55 55 	movabs $0x555555695c80,%rax
    579b:	55 00 00 
    579e:	48 89 78 00          	mov    %rdi,0x0(%rax)
    57a2:	48 89 70 08          	mov    %rsi,0x8(%rax)
    57a6:	48 8b 4d f8          	mov    -0x8(%rbp),%rcx
    57aa:	48 8b 51 10          	mov    0x10(%rcx),%rdx
    57ae:	48 8b 42 00          	mov    0x0(%rdx),%rax
    57b2:	48 89 c7             	mov    %rax,%rdi
    57b5:	48 8b 40 68          	mov    0x68(%rax),%rax
    57b9:	48 b9 6c 23 00 00 00 	movabs $0x236c,%rcx
    57c0:	00 00 00 
    57c3:	48 8b 04 c8          	mov    (%rax,%rcx,8),%rax
    57c7:	ff d0                	call   *%rax
    57c9:	48 89 c7             	mov    %rax,%rdi
    57cc:	48 31 ff             	xor    %rdi,%rdi
    57cf:	8b 7d a8             	mov    -0x58(%rbp),%edi
    57d2:	ff 45 a8             	incl   -0x58(%rbp)
    57d5:	48 31 ff             	xor    %rdi,%rdi
    57d8:	e9 93 fe ff ff       	jmp    0x5670
    57dd:	48 31 ff             	xor    %rdi,%rdi
    57e0:	89 7d a8             	mov    %edi,-0x58(%rbp)
    57e3:	48 31 ff             	xor    %rdi,%rdi
    57e6:	48 8b 4d b8          	mov    -0x48(%rbp),%rcx
    57ea:	48 31 d2             	xor    %rdx,%rdx
    57ed:	48 39 d1             	cmp    %rdx,%rcx
    57f0:	0f 84 23 00 00 00    	je     0x5819
    57f6:	48 ff 49 20          	decq   0x20(%rcx)
    57fa:	48 ff 49 28          	decq   0x28(%rcx)
    57fe:	48 39 51 20          	cmp    %rdx,0x20(%rcx)
    5802:	0f 85 11 00 00 00    	jne    0x5819
    5808:	57                   	push   %rdi
    5809:	48 b8 7f 95 58 55 55 	movabs $0x55555558957f,%rax
    5810:	55 00 00 
    5813:	48 89 cf             	mov    %rcx,%rdi
    5816:	ff d0                	call   *%rax
    5818:	5f                   	pop    %rdi
    5819:	48 89 7d b8          	mov    %rdi,-0x48(%rbp)
    581d:	48 31 ff             	xor    %rdi,%rdi
    5820:	48 8b 4d b0          	mov    -0x50(%rbp),%rcx
    5824:	48 31 d2             	xor    %rdx,%rdx
    5827:	48 39 d1             	cmp    %rdx,%rcx
    582a:	0f 84 23 00 00 00    	je     0x5853
    5830:	48 ff 49 20          	decq   0x20(%rcx)
    5834:	48 ff 49 28          	decq   0x28(%rcx)
    5838:	48 39 51 20          	cmp    %rdx,0x20(%rcx)
    583c:	0f 85 11 00 00 00    	jne    0x5853
    5842:	57                   	push   %rdi
    5843:	48 b8 7f 95 58 55 55 	movabs $0x55555558957f,%rax
    584a:	55 00 00 
    584d:	48 89 cf             	mov    %rcx,%rdi
    5850:	ff d0                	call   *%rax
    5852:	5f                   	pop    %rdi
    5853:	48 89 7d b0          	mov    %rdi,-0x50(%rbp)
    5857:	48 31 ff             	xor    %rdi,%rdi
    585a:	48 31 c0             	xor    %rax,%rax
    585d:	c9                   	leave  
    585e:	c3                   	ret    
    585f:	55                   	push   %rbp
    5860:	48 89 e5             	mov    %rsp,%rbp
    5863:	48 81 ec 58 00 00 00 	sub    $0x58,%rsp
    586a:	48 89 7d f8          	mov    %rdi,-0x8(%rbp)
    586e:	48 b8 00 5d 69 55 55 	movabs $0x555555695d00,%rax
    5875:	55 00 00 
    5878:	48 8b 00             	mov    (%rax),%rax
    587b:	48 89 45 f0          	mov    %rax,-0x10(%rbp)
    587f:	48 31 c0             	xor    %rax,%rax
    5882:	48 89 45 b8          	mov    %rax,-0x48(%rbp)
    5886:	48 89 45 b0          	mov    %rax,-0x50(%rbp)
    588a:	48 89 45 a8          	mov    %rax,-0x58(%rbp)
    588e:	48 b8 80 5c 69 55 55 	movabs $0x555555695c80,%rax
    5895:	55 00 00 
    5898:	48 8b 48 00          	mov    0x0(%rax),%rcx
    589c:	48 89 4d b8          	mov    %rcx,-0x48(%rbp)
    58a0:	48 bf 01 00 00 00 00 	movabs $0x1,%rdi
    58a7:	00 00 00 
    58aa:	48 8b 75 b8          	mov    -0x48(%rbp),%rsi
    58ae:	48 81 fe 00 00 00 00 	cmp    $0x0,%rsi
    58b5:	0f 84 08 00 00 00    	je     0x58c3
    58bb:	48 ff 46 20          	incq   0x20(%rsi)
    58bf:	48 ff 46 28          	incq   0x28(%rsi)
    58c3:	48 b8 80 5c 69 55 55 	movabs $0x555555695c80,%rax
    58ca:	55 00 00 
    58cd:	48 89 70 00          	mov    %rsi,0x0(%rax)
    58d1:	48 8b 4d f8          	mov    -0x8(%rbp),%rcx
    58d5:	48 8b 51 10          	mov    0x10(%rcx),%rdx
    58d9:	48 8b 42 00          	mov    0x0(%rdx),%rax
    58dd:	57                   	push   %rdi
    58de:	48 89 c7             	mov    %rax,%rdi
    58e1:	48 8b 40 68          	mov    0x68(%rax),%rax
    58e5:	48 b9 4c 27 00 00 00 	movabs $0x274c,%rcx
    58ec:	00 00 00 
    58ef:	48 8b 04 c8          	mov    (%rax,%rcx,8),%rax
    58f3:	ff d0                	call   *%rax
    58f5:	5f                   	pop    %rdi
    58f6:	48 89 c6             	mov    %rax,%rsi
    58f9:	49 b8 01 00 00 00 00 	movabs $0x1,%r8
    5900:	00 00 00 
    5903:	44 01 c6             	add    %r8d,%esi
    5906:	48 89 f8             	mov    %rdi,%rax
    5909:	48 f7 e6             	mul    %rsi
    590c:	48 89 c6             	mov    %rax,%rsi
    590f:	57                   	push   %rdi
    5910:	48 81 c0 08 00 00 00 	add    $0x8,%rax
    5917:	48 89 c7             	mov    %rax,%rdi
    591a:	48 b8 46 92 58 55 55 	movabs $0x555555589246,%rax
    5921:	55 00 00 
    5924:	ff d0                	call   *%rax
    5926:	5f                   	pop    %rdi
    5927:	48 8b 48 18          	mov    0x18(%rax),%rcx
    592b:	48 89 79 00          	mov    %rdi,0x0(%rcx)
    592f:	48 89 c7             	mov    %rax,%rdi
    5932:	48 8b 4d b0          	mov    -0x50(%rbp),%rcx
    5936:	48 31 d2             	xor    %rdx,%rdx
    5939:	48 39 d1             	cmp    %rdx,%rcx
    593c:	0f 84 23 00 00 00    	je     0x5965
    5942:	48 ff 49 20          	decq   0x20(%rcx)
    5946:	48 ff 49 28          	decq   0x28(%rcx)
    594a:	48 39 51 20          	cmp    %rdx,0x20(%rcx)
    594e:	0f 85 11 00 00 00    	jne    0x5965
    5954:	57                   	push   %rdi
    5955:	48 b8 7f 95 58 55 55 	movabs $0x55555558957f,%rax
    595c:	55 00 00 
    595f:	48 89 cf             	mov    %rcx,%rdi
    5962:	ff d0                	call   *%rax
    5964:	5f                   	pop    %rdi
    5965:	48 89 7d b0          	mov    %rdi,-0x50(%rbp)
    5969:	48 31 ff             	xor    %rdi,%rdi
    596c:	89 7d a8             	mov    %edi,-0x58(%rbp)
    596f:	48 8b 7d a8          	mov    -0x58(%rbp),%rdi
    5973:	48 8b 75 b8          	mov    -0x48(%rbp),%rsi
    5977:	48 81 fe 00 00 00 00 	cmp    $0x0,%rsi
    597e:	0f 84 08 00 00 00    	je     0x598c
    5984:	48 ff 46 20          	incq   0x20(%rsi)
    5988:	48 ff 46 28          	incq   0x28(%rsi)
    598c:	49 89 f0             	mov    %rsi,%r8
    598f:	48 81 fe 00 00 00 00 	cmp    $0x0,%rsi
    5996:	0f 84 08 00 00 00    	je     0x59a4
    599c:	48 ff 46 20          	incq   0x20(%rsi)
    59a0:	48 ff 46 28          	incq   0x28(%rsi)
    59a4:	48 b8 80 5c 69 55 55 	movabs $0x555555695c80,%rax
    59ab:	55 00 00 
    59ae:	4c 89 40 00          	mov    %r8,0x0(%rax)
    59b2:	48 89 f1             	mov    %rsi,%rcx
    59b5:	48 ff 49 20          	decq   0x20(%rcx)
    59b9:	48 ff 49 28          	decq   0x28(%rcx)
    59bd:	48 8b 51 18          	mov    0x18(%rcx),%rdx
    59c1:	48 81 c2 30 00 00 00 	add    $0x30,%rdx
    59c8:	48 8b 32             	mov    (%rdx),%rsi
    59cb:	57                   	push   %rdi
    59cc:	48 89 f7             	mov    %rsi,%rdi
    59cf:	48 b8 3f bd 58 55 55 	movabs $0x55555558bd3f,%rax
    59d6:	55 00 00 
    59d9:	ff d0                	call   *%rax
    59db:	5f                   	pop    %rdi
    59dc:	48 89 c6             	mov    %rax,%rsi
    59df:	39 f7                	cmp    %esi,%edi
    59e1:	0f 82 08 00 00 00    	jb     0x59ef
    59e7:	48 31 ff             	xor    %rdi,%rdi
    59ea:	e9 0a 00 00 00       	jmp    0x59f9
    59ef:	48 bf 01 00 00 00 00 	movabs $0x1,%rdi
    59f6:	00 00 00 
    59f9:	48 81 ff 00 00 00 00 	cmp    $0x0,%rdi
    5a00:	0f 84 ad 00 00 00    	je     0x5ab3
    5a06:	48 8b 7d b0          	mov    -0x50(%rbp),%rdi
    5a0a:	48 81 ff 00 00 00 00 	cmp    $0x0,%rdi
    5a11:	0f 84 08 00 00 00    	je     0x5a1f
    5a17:	48 ff 47 20          	incq   0x20(%rdi)
    5a1b:	48 ff 47 28          	incq   0x28(%rdi)
    5a1f:	48 8b 75 a8          	mov    -0x58(%rbp),%rsi
    5a23:	4c 8b 45 b8          	mov    -0x48(%rbp),%r8
    5a27:	49 81 f8 00 00 00 00 	cmp    $0x0,%r8
    5a2e:	0f 84 08 00 00 00    	je     0x5a3c
    5a34:	49 ff 40 20          	incq   0x20(%r8)
    5a38:	49 ff 40 28          	incq   0x28(%r8)
    5a3c:	4c 8b 4d a8          	mov    -0x58(%rbp),%r9
    5a40:	48 b8 80 5c 69 55 55 	movabs $0x555555695c80,%rax
    5a47:	55 00 00 
    5a4a:	4c 89 40 00          	mov    %r8,0x0(%rax)
    5a4e:	4c 89 48 08          	mov    %r9,0x8(%rax)
    5a52:	48 8b 4d f8          	mov    -0x8(%rbp),%rcx
    5a56:	48 8b 51 10          	mov    0x10(%rcx),%rdx
    5a5a:	48 8b 42 00          	mov    0x0(%rdx),%rax
    5a5e:	57                   	push   %rdi
    5a5f:	56                   	push   %rsi
    5a60:	48 89 c7             	mov    %rax,%rdi
    5a63:	48 8b 40 68          	mov    0x68(%rax),%rax
    5a67:	48 b9 7c 26 00 00 00 	movabs $0x267c,%rcx
    5a6e:	00 00 00 
    5a71:	48 8b 04 c8          	mov    (%rax,%rcx,8),%rax
    5a75:	ff d0                	call   *%rax
    5a77:	5e                   	pop    %rsi
    5a78:	5f                   	pop    %rdi
    5a79:	49 89 c0             	mov    %rax,%r8
    5a7c:	48 89 f9             	mov    %rdi,%rcx
    5a7f:	48 ff 49 20          	decq   0x20(%rcx)
    5a83:	48 ff 49 28          	decq   0x28(%rcx)
    5a87:	48 8b 49 18          	mov    0x18(%rcx),%rcx
    5a8b:	48 bb 08 00 00 00 00 	movabs $0x8,%rbx
    5a92:	00 00 00 
    5a95:	48 8b 41 00          	mov    0x0(%rcx),%rax
    5a99:	48 f7 e6             	mul    %rsi
    5a9c:	48 01 c3             	add    %rax,%rbx
    5a9f:	48 01 d9             	add    %rbx,%rcx
    5aa2:	44 88 01             	mov    %r8b,(%rcx)
    5aa5:	8b 7d a8             	mov    -0x58(%rbp),%edi
    5aa8:	ff 45 a8             	incl   -0x58(%rbp)
    5aab:	48 31 ff             	xor    %rdi,%rdi
    5aae:	e9 bc fe ff ff       	jmp    0x596f
    5ab3:	48 31 ff             	xor    %rdi,%rdi
    5ab6:	89 7d a8             	mov    %edi,-0x58(%rbp)
    5ab9:	48 8b 7d b0          	mov    -0x50(%rbp),%rdi
    5abd:	48 81 ff 00 00 00 00 	cmp    $0x0,%rdi
    5ac4:	0f 84 08 00 00 00    	je     0x5ad2
    5aca:	48 ff 47 20          	incq   0x20(%rdi)
    5ace:	48 ff 47 28          	incq   0x28(%rdi)
    5ad2:	48 8b 75 b8          	mov    -0x48(%rbp),%rsi
    5ad6:	48 81 fe 00 00 00 00 	cmp    $0x0,%rsi
    5add:	0f 84 08 00 00 00    	je     0x5aeb
    5ae3:	48 ff 46 20          	incq   0x20(%rsi)
    5ae7:	48 ff 46 28          	incq   0x28(%rsi)
    5aeb:	48 b8 80 5c 69 55 55 	movabs $0x555555695c80,%rax
    5af2:	55 00 00 
    5af5:	48 89 70 00          	mov    %rsi,0x0(%rax)
    5af9:	48 8b 4d f8          	mov    -0x8(%rbp),%rcx
    5afd:	48 8b 51 10          	mov    0x10(%rcx),%rdx
    5b01:	48 8b 42 00          	mov    0x0(%rdx),%rax
    5b05:	57                   	push   %rdi
    5b06:	48 89 c7             	mov    %rax,%rdi
    5b09:	48 8b 40 68          	mov    0x68(%rax),%rax
    5b0d:	48 b9 4c 27 00 00 00 	movabs $0x274c,%rcx
    5b14:	00 00 00 
    5b17:	48 8b 04 c8          	mov    (%rax,%rcx,8),%rax
    5b1b:	ff d0                	call   *%rax
    5b1d:	5f                   	pop    %rdi
    5b1e:	48 89 c6             	mov    %rax,%rsi
    5b21:	4d 31 c0             	xor    %r8,%r8
    5b24:	48 89 f9             	mov    %rdi,%rcx
    5b27:	48 ff 49 20          	decq   0x20(%rcx)
    5b2b:	48 ff 49 28          	decq   0x28(%rcx)
    5b2f:	48 8b 49 18          	mov    0x18(%rcx),%rcx
    5b33:	48 bb 08 00 00 00 00 	movabs $0x8,%rbx
    5b3a:	00 00 00 
    5b3d:	48 8b 41 00          	mov    0x0(%rcx),%rax
    5b41:	48 f7 e6             	mul    %rsi
    5b44:	48 01 c3             	add    %rax,%rbx
    5b47:	48 01 d9             	add    %rbx,%rcx
    5b4a:	44 88 01             	mov    %r8b,(%rcx)
    5b4d:	48 8b 7d b0          	mov    -0x50(%rbp),%rdi
    5b51:	48 81 ff 00 00 00 00 	cmp    $0x0,%rdi
    5b58:	0f 84 08 00 00 00    	je     0x5b66
    5b5e:	48 ff 47 20          	incq   0x20(%rdi)
    5b62:	48 ff 47 28          	incq   0x28(%rdi)
    5b66:	48 31 f6             	xor    %rsi,%rsi
    5b69:	48 8b 4d b0          	mov    -0x50(%rbp),%rcx
    5b6d:	48 31 d2             	xor    %rdx,%rdx
    5b70:	48 39 d1             	cmp    %rdx,%rcx
    5b73:	0f 84 25 00 00 00    	je     0x5b9e
    5b79:	48 ff 49 20          	decq   0x20(%rcx)
    5b7d:	48 ff 49 28          	decq   0x28(%rcx)
    5b81:	48 39 51 20          	cmp    %rdx,0x20(%rcx)
    5b85:	0f 85 13 00 00 00    	jne    0x5b9e
    5b8b:	57                   	push   %rdi
    5b8c:	56                   	push   %rsi
    5b8d:	48 b8 7f 95 58 55 55 	movabs $0x55555558957f,%rax
    5b94:	55 00 00 
    5b97:	48 89 cf             	mov    %rcx,%rdi
    5b9a:	ff d0                	call   *%rax
    5b9c:	5e                   	pop    %rsi
    5b9d:	5f                   	pop    %rdi
    5b9e:	48 89 75 b0          	mov    %rsi,-0x50(%rbp)
    5ba2:	48 31 f6             	xor    %rsi,%rsi
    5ba5:	48 8b 4d b8          	mov    -0x48(%rbp),%rcx
    5ba9:	48 31 d2             	xor    %rdx,%rdx
    5bac:	48 39 d1             	cmp    %rdx,%rcx
    5baf:	0f 84 25 00 00 00    	je     0x5bda
    5bb5:	48 ff 49 20          	decq   0x20(%rcx)
    5bb9:	48 ff 49 28          	decq   0x28(%rcx)
    5bbd:	48 39 51 20          	cmp    %rdx,0x20(%rcx)
    5bc1:	0f 85 13 00 00 00    	jne    0x5bda
    5bc7:	57                   	push   %rdi
    5bc8:	56                   	push   %rsi
    5bc9:	48 b8 7f 95 58 55 55 	movabs $0x55555558957f,%rax
    5bd0:	55 00 00 
    5bd3:	48 89 cf             	mov    %rcx,%rdi
    5bd6:	ff d0                	call   *%rax
    5bd8:	5e                   	pop    %rsi
    5bd9:	5f                   	pop    %rdi
    5bda:	48 89 75 b8          	mov    %rsi,-0x48(%rbp)
    5bde:	48 89 f8             	mov    %rdi,%rax
    5be1:	c9                   	leave  
    5be2:	c3                   	ret    
    5be3:	48 31 ff             	xor    %rdi,%rdi
    5be6:	48 8b 4d b0          	mov    -0x50(%rbp),%rcx
    5bea:	48 31 d2             	xor    %rdx,%rdx
    5bed:	48 39 d1             	cmp    %rdx,%rcx
    5bf0:	0f 84 23 00 00 00    	je     0x5c19
    5bf6:	48 ff 49 20          	decq   0x20(%rcx)
    5bfa:	48 ff 49 28          	decq   0x28(%rcx)
    5bfe:	48 39 51 20          	cmp    %rdx,0x20(%rcx)
    5c02:	0f 85 11 00 00 00    	jne    0x5c19
    5c08:	57                   	push   %rdi
    5c09:	48 b8 7f 95 58 55 55 	movabs $0x55555558957f,%rax
    5c10:	55 00 00 
    5c13:	48 89 cf             	mov    %rcx,%rdi
    5c16:	ff d0                	call   *%rax
    5c18:	5f                   	pop    %rdi
    5c19:	48 89 7d b0          	mov    %rdi,-0x50(%rbp)
    5c1d:	48 31 ff             	xor    %rdi,%rdi
    5c20:	48 8b 4d b8          	mov    -0x48(%rbp),%rcx
    5c24:	48 31 d2             	xor    %rdx,%rdx
    5c27:	48 39 d1             	cmp    %rdx,%rcx
    5c2a:	0f 84 23 00 00 00    	je     0x5c53
    5c30:	48 ff 49 20          	decq   0x20(%rcx)
    5c34:	48 ff 49 28          	decq   0x28(%rcx)
    5c38:	48 39 51 20          	cmp    %rdx,0x20(%rcx)
    5c3c:	0f 85 11 00 00 00    	jne    0x5c53
    5c42:	57                   	push   %rdi
    5c43:	48 b8 7f 95 58 55 55 	movabs $0x55555558957f,%rax
    5c4a:	55 00 00 
    5c4d:	48 89 cf             	mov    %rcx,%rdi
    5c50:	ff d0                	call   *%rax
    5c52:	5f                   	pop    %rdi
    5c53:	48 89 7d b8          	mov    %rdi,-0x48(%rbp)
    5c57:	48 31 ff             	xor    %rdi,%rdi
    5c5a:	48 89 f8             	mov    %rdi,%rax
    5c5d:	c9                   	leave  
    5c5e:	c3                   	ret    
    5c5f:	55                   	push   %rbp
    5c60:	48 89 e5             	mov    %rsp,%rbp
    5c63:	48 81 ec 50 00 00 00 	sub    $0x50,%rsp
    5c6a:	48 89 7d f8          	mov    %rdi,-0x8(%rbp)
    5c6e:	48 b8 00 5d 69 55 55 	movabs $0x555555695d00,%rax
    5c75:	55 00 00 
    5c78:	48 8b 00             	mov    (%rax),%rax
    5c7b:	48 89 45 f0          	mov    %rax,-0x10(%rbp)
    5c7f:	48 31 c0             	xor    %rax,%rax
    5c82:	48 89 45 b8          	mov    %rax,-0x48(%rbp)
    5c86:	48 89 45 b0          	mov    %rax,-0x50(%rbp)
    5c8a:	48 b8 80 5c 69 55 55 	movabs $0x555555695c80,%rax
    5c91:	55 00 00 
    5c94:	48 8b 48 00          	mov    0x0(%rax),%rcx
    5c98:	48 89 4d b8          	mov    %rcx,-0x48(%rbp)
    5c9c:	48 8b 48 08          	mov    0x8(%rax),%rcx
    5ca0:	48 89 4d b0          	mov    %rcx,-0x50(%rbp)
    5ca4:	48 8b 7d b0          	mov    -0x50(%rbp),%rdi
    5ca8:	48 be 3c 00 00 00 00 	movabs $0x3c,%rsi
    5caf:	00 00 00 
    5cb2:	48 39 f7             	cmp    %rsi,%rdi
    5cb5:	0f 8f 08 00 00 00    	jg     0x5cc3
    5cbb:	48 31 ff             	xor    %rdi,%rdi
    5cbe:	e9 0a 00 00 00       	jmp    0x5ccd
    5cc3:	48 bf 01 00 00 00 00 	movabs $0x1,%rdi
    5cca:	00 00 00 
    5ccd:	48 81 ff 00 00 00 00 	cmp    $0x0,%rdi
    5cd4:	0f 84 68 00 00 00    	je     0x5d42
    5cda:	48 8b 7d b0          	mov    -0x50(%rbp),%rdi
    5cde:	48 8b 75 b8          	mov    -0x48(%rbp),%rsi
    5ce2:	4c 8b 45 b0          	mov    -0x50(%rbp),%r8
    5ce6:	48 31 d2             	xor    %rdx,%rdx
    5ce9:	48 89 f0             	mov    %rsi,%rax
    5cec:	49 f7 f8             	idiv   %r8
    5cef:	48 89 d6             	mov    %rdx,%rsi
    5cf2:	48 b8 80 5c 69 55 55 	movabs $0x555555695c80,%rax
    5cf9:	55 00 00 
    5cfc:	48 89 78 00          	mov    %rdi,0x0(%rax)
    5d00:	48 89 70 08          	mov    %rsi,0x8(%rax)
    5d04:	48 8b 4d f8          	mov    -0x8(%rbp),%rcx
    5d08:	48 8b 51 10          	mov    0x10(%rcx),%rdx
    5d0c:	48 8b 42 00          	mov    0x0(%rdx),%rax
    5d10:	48 89 c7             	mov    %rax,%rdi
    5d13:	48 8b 40 68          	mov    0x68(%rax),%rax
    5d17:	48 b9 8c 37 00 00 00 	movabs $0x378c,%rcx
    5d1e:	00 00 00 
    5d21:	48 8b 04 c8          	mov    (%rax,%rcx,8),%rax
    5d25:	ff d0                	call   *%rax
    5d27:	48 89 c7             	mov    %rax,%rdi
    5d2a:	48 31 f6             	xor    %rsi,%rsi
    5d2d:	48 89 75 b8          	mov    %rsi,-0x48(%rbp)
    5d31:	48 31 f6             	xor    %rsi,%rsi
    5d34:	48 89 75 b0          	mov    %rsi,-0x50(%rbp)
    5d38:	48 89 f8             	mov    %rdi,%rax
    5d3b:	c9                   	leave  
    5d3c:	c3                   	ret    
    5d3d:	e9 17 00 00 00       	jmp    0x5d59
    5d42:	48 8b 7d b8          	mov    -0x48(%rbp),%rdi
    5d46:	48 31 f6             	xor    %rsi,%rsi
    5d49:	48 89 75 b8          	mov    %rsi,-0x48(%rbp)
    5d4d:	48 31 f6             	xor    %rsi,%rsi
    5d50:	48 89 75 b0          	mov    %rsi,-0x50(%rbp)
    5d54:	48 89 f8             	mov    %rdi,%rax
    5d57:	c9                   	leave  
    5d58:	c3                   	ret    
    5d59:	48 31 ff             	xor    %rdi,%rdi
    5d5c:	48 89 7d b8          	mov    %rdi,-0x48(%rbp)
    5d60:	48 31 ff             	xor    %rdi,%rdi
    5d63:	48 89 7d b0          	mov    %rdi,-0x50(%rbp)
    5d67:	48 31 ff             	xor    %rdi,%rdi
    5d6a:	48 89 f8             	mov    %rdi,%rax
    5d6d:	c9                   	leave  
    5d6e:	c3                   	ret    
    5d6f:	55                   	push   %rbp
    5d70:	48 89 e5             	mov    %rsp,%rbp
    5d73:	48 81 ec 50 00 00 00 	sub    $0x50,%rsp
    5d7a:	48 89 7d f8          	mov    %rdi,-0x8(%rbp)
    5d7e:	48 b8 00 5d 69 55 55 	movabs $0x555555695d00,%rax
    5d85:	55 00 00 
    5d88:	48 8b 00             	mov    (%rax),%rax
    5d8b:	48 89 45 f0          	mov    %rax,-0x10(%rbp)
    5d8f:	48 31 c0             	xor    %rax,%rax
    5d92:	48 89 45 b8          	mov    %rax,-0x48(%rbp)
    5d96:	48 89 45 b0          	mov    %rax,-0x50(%rbp)
    5d9a:	48 b8 80 5c 69 55 55 	movabs $0x555555695c80,%rax
    5da1:	55 00 00 
    5da4:	48 8b 48 00          	mov    0x0(%rax),%rcx
    5da8:	48 89 4d b8          	mov    %rcx,-0x48(%rbp)
    5dac:	48 8b 48 08          	mov    0x8(%rax),%rcx
    5db0:	48 89 4d b0          	mov    %rcx,-0x50(%rbp)
    5db4:	48 8b 7d b8          	mov    -0x48(%rbp),%rdi
    5db8:	48 8b 75 b0          	mov    -0x50(%rbp),%rsi
    5dbc:	39 f7                	cmp    %esi,%edi
    5dbe:	0f 8f 08 00 00 00    	jg     0x5dcc
    5dc4:	48 31 ff             	xor    %rdi,%rdi
    5dc7:	e9 0a 00 00 00       	jmp    0x5dd6
    5dcc:	48 bf 01 00 00 00 00 	movabs $0x1,%rdi
    5dd3:	00 00 00 
    5dd6:	48 81 ff 00 00 00 00 	cmp    $0x0,%rdi
    5ddd:	0f 84 1a 00 00 00    	je     0x5dfd
    5de3:	48 8b 7d b8          	mov    -0x48(%rbp),%rdi
    5de7:	48 31 f6             	xor    %rsi,%rsi
    5dea:	89 75 b8             	mov    %esi,-0x48(%rbp)
    5ded:	48 31 f6             	xor    %rsi,%rsi
    5df0:	89 75 b0             	mov    %esi,-0x50(%rbp)
    5df3:	48 89 f8             	mov    %rdi,%rax
    5df6:	c9                   	leave  
    5df7:	c3                   	ret    
    5df8:	e9 15 00 00 00       	jmp    0x5e12
    5dfd:	48 8b 7d b0          	mov    -0x50(%rbp),%rdi
    5e01:	48 31 f6             	xor    %rsi,%rsi
    5e04:	89 75 b8             	mov    %esi,-0x48(%rbp)
    5e07:	48 31 f6             	xor    %rsi,%rsi
    5e0a:	89 75 b0             	mov    %esi,-0x50(%rbp)
    5e0d:	48 89 f8             	mov    %rdi,%rax
    5e10:	c9                   	leave  
    5e11:	c3                   	ret    
    5e12:	48 31 ff             	xor    %rdi,%rdi
    5e15:	89 7d b8             	mov    %edi,-0x48(%rbp)
    5e18:	48 31 ff             	xor    %rdi,%rdi
    5e1b:	89 7d b0             	mov    %edi,-0x50(%rbp)
    5e1e:	48 31 ff             	xor    %rdi,%rdi
    5e21:	48 89 f8             	mov    %rdi,%rax
    5e24:	c9                   	leave  
    5e25:	c3                   	ret    
    5e26:	55                   	push   %rbp
    5e27:	48 89 e5             	mov    %rsp,%rbp
    5e2a:	48 81 ec 50 00 00 00 	sub    $0x50,%rsp
    5e31:	48 89 7d f8          	mov    %rdi,-0x8(%rbp)
    5e35:	48 b8 00 5d 69 55 55 	movabs $0x555555695d00,%rax
    5e3c:	55 00 00 
    5e3f:	48 8b 00             	mov    (%rax),%rax
    5e42:	48 89 45 f0          	mov    %rax,-0x10(%rbp)
    5e46:	48 31 c0             	xor    %rax,%rax
    5e49:	48 89 45 b8          	mov    %rax,-0x48(%rbp)
    5e4d:	48 89 45 b0          	mov    %rax,-0x50(%rbp)
    5e51:	48 b8 80 5c 69 55 55 	movabs $0x555555695c80,%rax
    5e58:	55 00 00 
    5e5b:	48 8b 48 00          	mov    0x0(%rax),%rcx
    5e5f:	48 89 4d b8          	mov    %rcx,-0x48(%rbp)
    5e63:	48 8b 48 08          	mov    0x8(%rax),%rcx
    5e67:	48 89 4d b0          	mov    %rcx,-0x50(%rbp)
    5e6b:	48 8b 7d b8          	mov    -0x48(%rbp),%rdi
    5e6f:	48 8b 75 b0          	mov    -0x50(%rbp),%rsi
    5e73:	39 f7                	cmp    %esi,%edi
    5e75:	0f 8f 08 00 00 00    	jg     0x5e83
    5e7b:	48 31 ff             	xor    %rdi,%rdi
    5e7e:	e9 0a 00 00 00       	jmp    0x5e8d
    5e83:	48 bf 01 00 00 00 00 	movabs $0x1,%rdi
    5e8a:	00 00 00 
    5e8d:	48 81 ff 00 00 00 00 	cmp    $0x0,%rdi
    5e94:	0f 84 1a 00 00 00    	je     0x5eb4
    5e9a:	48 8b 7d b0          	mov    -0x50(%rbp),%rdi
    5e9e:	48 31 f6             	xor    %rsi,%rsi
    5ea1:	89 75 b8             	mov    %esi,-0x48(%rbp)
    5ea4:	48 31 f6             	xor    %rsi,%rsi
    5ea7:	89 75 b0             	mov    %esi,-0x50(%rbp)
    5eaa:	48 89 f8             	mov    %rdi,%rax
    5ead:	c9                   	leave  
    5eae:	c3                   	ret    
    5eaf:	e9 15 00 00 00       	jmp    0x5ec9
    5eb4:	48 8b 7d b8          	mov    -0x48(%rbp),%rdi
    5eb8:	48 31 f6             	xor    %rsi,%rsi
    5ebb:	89 75 b8             	mov    %esi,-0x48(%rbp)
    5ebe:	48 31 f6             	xor    %rsi,%rsi
    5ec1:	89 75 b0             	mov    %esi,-0x50(%rbp)
    5ec4:	48 89 f8             	mov    %rdi,%rax
    5ec7:	c9                   	leave  
    5ec8:	c3                   	ret    
    5ec9:	48 31 ff             	xor    %rdi,%rdi
    5ecc:	89 7d b8             	mov    %edi,-0x48(%rbp)
    5ecf:	48 31 ff             	xor    %rdi,%rdi
    5ed2:	89 7d b0             	mov    %edi,-0x50(%rbp)
    5ed5:	48 31 ff             	xor    %rdi,%rdi
    5ed8:	48 89 f8             	mov    %rdi,%rax
    5edb:	c9                   	leave  
    5edc:	c3                   	ret    
    5edd:	55                   	push   %rbp
    5ede:	48 89 e5             	mov    %rsp,%rbp
    5ee1:	48 81 ec 58 00 00 00 	sub    $0x58,%rsp
    5ee8:	48 89 7d f8          	mov    %rdi,-0x8(%rbp)
    5eec:	48 b8 00 5d 69 55 55 	movabs $0x555555695d00,%rax
    5ef3:	55 00 00 
    5ef6:	48 8b 00             	mov    (%rax),%rax
    5ef9:	48 89 45 f0          	mov    %rax,-0x10(%rbp)
    5efd:	48 31 c0             	xor    %rax,%rax
    5f00:	48 89 45 b8          	mov    %rax,-0x48(%rbp)
    5f04:	48 89 45 b0          	mov    %rax,-0x50(%rbp)
    5f08:	48 89 45 a8          	mov    %rax,-0x58(%rbp)
    5f0c:	48 b8 80 5c 69 55 55 	movabs $0x555555695c80,%rax
    5f13:	55 00 00 
    5f16:	48 8b 48 00          	mov    0x0(%rax),%rcx
    5f1a:	48 89 4d b8          	mov    %rcx,-0x48(%rbp)
    5f1e:	48 8b 48 08          	mov    0x8(%rax),%rcx
    5f22:	48 89 4d b0          	mov    %rcx,-0x50(%rbp)
    5f26:	48 bf 46 00 00 00 00 	movabs $0x46,%rdi
    5f2d:	00 00 00 
    5f30:	48 89 7d a8          	mov    %rdi,-0x58(%rbp)
    5f34:	48 8b 7d b0          	mov    -0x50(%rbp),%rdi
    5f38:	48 be 3c 00 00 00 00 	movabs $0x3c,%rsi
    5f3f:	00 00 00 
    5f42:	48 39 f7             	cmp    %rsi,%rdi
    5f45:	0f 8f 08 00 00 00    	jg     0x5f53
    5f4b:	48 31 ff             	xor    %rdi,%rdi
    5f4e:	e9 0a 00 00 00       	jmp    0x5f5d
    5f53:	48 bf 01 00 00 00 00 	movabs $0x1,%rdi
    5f5a:	00 00 00 
    5f5d:	48 81 ff 00 00 00 00 	cmp    $0x0,%rdi
    5f64:	0f 84 60 00 00 00    	je     0x5fca
    5f6a:	48 8b 7d b0          	mov    -0x50(%rbp),%rdi
    5f6e:	48 be 46 00 00 00 00 	movabs $0x46,%rsi
    5f75:	00 00 00 
    5f78:	48 21 f7             	and    %rsi,%rdi
    5f7b:	48 81 ff 00 00 00 00 	cmp    $0x0,%rdi
    5f82:	0f 84 17 00 00 00    	je     0x5f9f
    5f88:	48 8b 7d b8          	mov    -0x48(%rbp),%rdi
    5f8c:	48 31 c0             	xor    %rax,%rax
    5f8f:	48 89 f8             	mov    %rdi,%rax
    5f92:	48 f7 6d a8          	imulq  -0x58(%rbp)
    5f96:	48 89 45 a8          	mov    %rax,-0x58(%rbp)
    5f9a:	e9 00 00 00 00       	jmp    0x5f9f
    5f9f:	48 8b 7d b8          	mov    -0x48(%rbp),%rdi
    5fa3:	48 31 c0             	xor    %rax,%rax
    5fa6:	48 89 f8             	mov    %rdi,%rax
    5fa9:	48 f7 6d b8          	imulq  -0x48(%rbp)
    5fad:	48 89 45 b8          	mov    %rax,-0x48(%rbp)
    5fb1:	48 bf 46 00 00 00 00 	movabs $0x46,%rdi
    5fb8:	00 00 00 
    5fbb:	48 89 f9             	mov    %rdi,%rcx
    5fbe:	48 d3 bd b0 ff ff ff 	sarq   %cl,-0x50(%rbp)
    5fc5:	e9 6a ff ff ff       	jmp    0x5f34
    5fca:	48 8b 7d a8          	mov    -0x58(%rbp),%rdi
    5fce:	48 31 f6             	xor    %rsi,%rsi
    5fd1:	48 89 75 a8          	mov    %rsi,-0x58(%rbp)
    5fd5:	48 31 f6             	xor    %rsi,%rsi
    5fd8:	48 89 75 b8          	mov    %rsi,-0x48(%rbp)
    5fdc:	48 31 f6             	xor    %rsi,%rsi
    5fdf:	48 89 75 b0          	mov    %rsi,-0x50(%rbp)
    5fe3:	48 89 f8             	mov    %rdi,%rax
    5fe6:	c9                   	leave  
    5fe7:	c3                   	ret    
    5fe8:	48 31 ff             	xor    %rdi,%rdi
    5feb:	48 89 7d a8          	mov    %rdi,-0x58(%rbp)
    5fef:	48 31 ff             	xor    %rdi,%rdi
    5ff2:	48 89 7d b8          	mov    %rdi,-0x48(%rbp)
    5ff6:	48 31 ff             	xor    %rdi,%rdi
    5ff9:	48 89 7d b0          	mov    %rdi,-0x50(%rbp)
    5ffd:	48 31 ff             	xor    %rdi,%rdi
    6000:	48 89 f8             	mov    %rdi,%rax
    6003:	c9                   	leave  
    6004:	c3                   	ret    
